ccopy_reg
_reconstructor
p1
(cmatplotlib.font_manager
FontManager
p2
c__builtin__
object
p3
NtRp4
(dp5
S'ttflist'
p6
(lp7
g1
(cmatplotlib.font_manager
FontEntry
p8
g3
NtRp9
(dp10
S'style'
p11
Vitalic
p12
sS'name'
p13
S'STIXGeneral'
p14
sS'weight'
p15
I400
sS'stretch'
p16
Vnormal
p17
sS'variant'
p18
g17
sS'fname'
p19
V/Users/mforbes/.virtualenvs/tellapart/lib/python2.7/site-packages/matplotlib/mpl-data/fonts/ttf/STIXGeneralItalic.ttf
p20
sS'size'
p21
Vscalable
p22
sbag1
(g8
g3
NtRp23
(dp24
g11
g17
sg13
S'STIXSizeOneSym'
p25
sg15
I700
sg16
g17
sg18
g17
sg19
V/Users/mforbes/.virtualenvs/tellapart/lib/python2.7/site-packages/matplotlib/mpl-data/fonts/ttf/STIXSizOneSymBol.ttf
p26
sg21
g22
sbag1
(g8
g3
NtRp27
(dp28
g11
g17
sg13
S'STIXSizeOneSym'
p29
sg15
I400
sg16
g17
sg18
g17
sg19
V/Users/mforbes/.virtualenvs/tellapart/lib/python2.7/site-packages/matplotlib/mpl-data/fonts/ttf/STIXSizOneSymReg.ttf
p30
sg21
g22
sbag1
(g8
g3
NtRp31
(dp32
g11
g17
sg13
S'Bitstream Vera Sans Mono'
p33
sg15
I700
sg16
g17
sg18
g17
sg19
V/Users/mforbes/.virtualenvs/tellapart/lib/python2.7/site-packages/matplotlib/mpl-data/fonts/ttf/VeraMoBd.ttf
p34
sg21
g22
sbag1
(g8
g3
NtRp35
(dp36
g11
g17
sg13
S'cmmi10'
p37
sg15
I400
sg16
g17
sg18
g17
sg19
V/Users/mforbes/.virtualenvs/tellapart/lib/python2.7/site-packages/matplotlib/mpl-data/fonts/ttf/cmmi10.ttf
p38
sg21
g22
sbag1
(g8
g3
NtRp39
(dp40
g11
g17
sg13
S'cmr10'
p41
sg15
I400
sg16
g17
sg18
g17
sg19
V/Users/mforbes/.virtualenvs/tellapart/lib/python2.7/site-packages/matplotlib/mpl-data/fonts/ttf/cmr10.ttf
p42
sg21
g22
sbag1
(g8
g3
NtRp43
(dp44
g11
Voblique
p45
sg13
S'Bitstream Vera Sans'
p46
sg15
I400
sg16
g17
sg18
g17
sg19
V/Users/mforbes/.virtualenvs/tellapart/lib/python2.7/site-packages/matplotlib/mpl-data/fonts/ttf/VeraIt.ttf
p47
sg21
g22
sbag1
(g8
g3
NtRp48
(dp49
g11
g12
sg13
S'STIXNonUnicode'
p50
sg15
I700
sg16
g17
sg18
g17
sg19
V/Users/mforbes/.virtualenvs/tellapart/lib/python2.7/site-packages/matplotlib/mpl-data/fonts/ttf/STIXNonUniBolIta.ttf
p51
sg21
g22
sbag1
(g8
g3
NtRp52
(dp53
g11
g17
sg13
S'Bitstream Vera Serif'
p54
sg15
I700
sg16
g17
sg18
g17
sg19
V/Users/mforbes/.virtualenvs/tellapart/lib/python2.7/site-packages/matplotlib/mpl-data/fonts/ttf/VeraSeBd.ttf
p55
sg21
g22
sbag1
(g8
g3
NtRp56
(dp57
g11
g12
sg13
S'STIXNonUnicode'
p58
sg15
I400
sg16
g17
sg18
g17
sg19
V/Users/mforbes/.virtualenvs/tellapart/lib/python2.7/site-packages/matplotlib/mpl-data/fonts/ttf/STIXNonUniIta.ttf
p59
sg21
g22
sbag1
(g8
g3
NtRp60
(dp61
g11
g17
sg13
S'Bitstream Vera Serif'
p62
sg15
I400
sg16
g17
sg18
g17
sg19
V/Users/mforbes/.virtualenvs/tellapart/lib/python2.7/site-packages/matplotlib/mpl-data/fonts/ttf/VeraSe.ttf
p63
sg21
g22
sbag1
(g8
g3
NtRp64
(dp65
g11
g17
sg13
S'STIXGeneral'
p66
sg15
I400
sg16
g17
sg18
g17
sg19
V/Users/mforbes/.virtualenvs/tellapart/lib/python2.7/site-packages/matplotlib/mpl-data/fonts/ttf/STIXGeneral.ttf
p67
sg21
g22
sbag1
(g8
g3
NtRp68
(dp69
g11
g17
sg13
S'cmb10'
p70
sg15
I400
sg16
g17
sg18
g17
sg19
V/Users/mforbes/.virtualenvs/tellapart/lib/python2.7/site-packages/matplotlib/mpl-data/fonts/ttf/cmb10.ttf
p71
sg21
g22
sbag1
(g8
g3
NtRp72
(dp73
g11
g17
sg13
S'cmtt10'
p74
sg15
I400
sg16
g17
sg18
g17
sg19
V/Users/mforbes/.virtualenvs/tellapart/lib/python2.7/site-packages/matplotlib/mpl-data/fonts/ttf/cmtt10.ttf
p75
sg21
g22
sbag1
(g8
g3
NtRp76
(dp77
g11
g45
sg13
S'Bitstream Vera Sans Mono'
p78
sg15
I400
sg16
g17
sg18
g17
sg19
V/Users/mforbes/.virtualenvs/tellapart/lib/python2.7/site-packages/matplotlib/mpl-data/fonts/ttf/VeraMoIt.ttf
p79
sg21
g22
sbag1
(g8
g3
NtRp80
(dp81
g11
g17
sg13
S'cmsy10'
p82
sg15
I400
sg16
g17
sg18
g17
sg19
V/Users/mforbes/.virtualenvs/tellapart/lib/python2.7/site-packages/matplotlib/mpl-data/fonts/ttf/cmsy10.ttf
p83
sg21
g22
sbag1
(g8
g3
NtRp84
(dp85
g11
g17
sg13
S'STIXSizeTwoSym'
p86
sg15
I700
sg16
g17
sg18
g17
sg19
V/Users/mforbes/.virtualenvs/tellapart/lib/python2.7/site-packages/matplotlib/mpl-data/fonts/ttf/STIXSizTwoSymBol.ttf
p87
sg21
g22
sbag1
(g8
g3
NtRp88
(dp89
g11
g17
sg13
S'STIXSizeFiveSym'
p90
sg15
I400
sg16
g17
sg18
g17
sg19
V/Users/mforbes/.virtualenvs/tellapart/lib/python2.7/site-packages/matplotlib/mpl-data/fonts/ttf/STIXSizFiveSymReg.ttf
p91
sg21
g22
sbag1
(g8
g3
NtRp92
(dp93
g11
g17
sg13
S'Bitstream Vera Sans'
p94
sg15
I400
sg16
g17
sg18
g17
sg19
V/Users/mforbes/.virtualenvs/tellapart/lib/python2.7/site-packages/matplotlib/mpl-data/fonts/ttf/Vera.ttf
p95
sg21
g22
sbag1
(g8
g3
NtRp96
(dp97
g11
g45
sg13
S'Bitstream Vera Sans Mono'
p98
sg15
I700
sg16
g17
sg18
g17
sg19
V/Users/mforbes/.virtualenvs/tellapart/lib/python2.7/site-packages/matplotlib/mpl-data/fonts/ttf/VeraMoBI.ttf
p99
sg21
g22
sbag1
(g8
g3
NtRp100
(dp101
g11
g17
sg13
S'STIXSizeThreeSym'
p102
sg15
I700
sg16
g17
sg18
g17
sg19
V/Users/mforbes/.virtualenvs/tellapart/lib/python2.7/site-packages/matplotlib/mpl-data/fonts/ttf/STIXSizThreeSymBol.ttf
p103
sg21
g22
sbag1
(g8
g3
NtRp104
(dp105
g11
g17
sg13
S'STIXSizeThreeSym'
p106
sg15
I400
sg16
g17
sg18
g17
sg19
V/Users/mforbes/.virtualenvs/tellapart/lib/python2.7/site-packages/matplotlib/mpl-data/fonts/ttf/STIXSizThreeSymReg.ttf
p107
sg21
g22
sbag1
(g8
g3
NtRp108
(dp109
g11
g17
sg13
S'STIXGeneral'
p110
sg15
I700
sg16
g17
sg18
g17
sg19
V/Users/mforbes/.virtualenvs/tellapart/lib/python2.7/site-packages/matplotlib/mpl-data/fonts/ttf/STIXGeneralBol.ttf
p111
sg21
g22
sbag1
(g8
g3
NtRp112
(dp113
g11
g17
sg13
S'Bitstream Vera Sans Mono'
p114
sg15
I400
sg16
g17
sg18
g17
sg19
V/Users/mforbes/.virtualenvs/tellapart/lib/python2.7/site-packages/matplotlib/mpl-data/fonts/ttf/VeraMono.ttf
p115
sg21
g22
sbag1
(g8
g3
NtRp116
(dp117
g11
g17
sg13
S'STIXNonUnicode'
p118
sg15
I700
sg16
g17
sg18
g17
sg19
V/Users/mforbes/.virtualenvs/tellapart/lib/python2.7/site-packages/matplotlib/mpl-data/fonts/ttf/STIXNonUniBol.ttf
p119
sg21
g22
sbag1
(g8
g3
NtRp120
(dp121
g11
g17
sg13
S'cmss10'
p122
sg15
I400
sg16
g17
sg18
g17
sg19
V/Users/mforbes/.virtualenvs/tellapart/lib/python2.7/site-packages/matplotlib/mpl-data/fonts/ttf/cmss10.ttf
p123
sg21
g22
sbag1
(g8
g3
NtRp124
(dp125
g11
g17
sg13
S'cmex10'
p126
sg15
I400
sg16
g17
sg18
g17
sg19
V/Users/mforbes/.virtualenvs/tellapart/lib/python2.7/site-packages/matplotlib/mpl-data/fonts/ttf/cmex10.ttf
p127
sg21
g22
sbag1
(g8
g3
NtRp128
(dp129
g11
g17
sg13
S'STIXSizeTwoSym'
p130
sg15
I400
sg16
g17
sg18
g17
sg19
V/Users/mforbes/.virtualenvs/tellapart/lib/python2.7/site-packages/matplotlib/mpl-data/fonts/ttf/STIXSizTwoSymReg.ttf
p131
sg21
g22
sbag1
(g8
g3
NtRp132
(dp133
g11
g17
sg13
S'STIXNonUnicode'
p134
sg15
I400
sg16
g17
sg18
g17
sg19
V/Users/mforbes/.virtualenvs/tellapart/lib/python2.7/site-packages/matplotlib/mpl-data/fonts/ttf/STIXNonUni.ttf
p135
sg21
g22
sbag1
(g8
g3
NtRp136
(dp137
g11
g17
sg13
S'STIXSizeFourSym'
p138
sg15
I700
sg16
g17
sg18
g17
sg19
V/Users/mforbes/.virtualenvs/tellapart/lib/python2.7/site-packages/matplotlib/mpl-data/fonts/ttf/STIXSizFourSymBol.ttf
p139
sg21
g22
sbag1
(g8
g3
NtRp140
(dp141
g11
g45
sg13
S'Bitstream Vera Sans'
p142
sg15
I700
sg16
g17
sg18
g17
sg19
V/Users/mforbes/.virtualenvs/tellapart/lib/python2.7/site-packages/matplotlib/mpl-data/fonts/ttf/VeraBI.ttf
p143
sg21
g22
sbag1
(g8
g3
NtRp144
(dp145
g11
g12
sg13
S'STIXGeneral'
p146
sg15
I700
sg16
g17
sg18
g17
sg19
V/Users/mforbes/.virtualenvs/tellapart/lib/python2.7/site-packages/matplotlib/mpl-data/fonts/ttf/STIXGeneralBolIta.ttf
p147
sg21
g22
sbag1
(g8
g3
NtRp148
(dp149
g11
g17
sg13
S'STIXSizeFourSym'
p150
sg15
I400
sg16
g17
sg18
g17
sg19
V/Users/mforbes/.virtualenvs/tellapart/lib/python2.7/site-packages/matplotlib/mpl-data/fonts/ttf/STIXSizFourSymReg.ttf
p151
sg21
g22
sbag1
(g8
g3
NtRp152
(dp153
g11
g17
sg13
S'Bitstream Vera Sans'
p154
sg15
I700
sg16
g17
sg18
g17
sg19
V/Users/mforbes/.virtualenvs/tellapart/lib/python2.7/site-packages/matplotlib/mpl-data/fonts/ttf/VeraBd.ttf
p155
sg21
g22
sbag1
(g8
g3
NtRp156
(dp157
g11
g12
sg13
S'Trebuchet MS'
p158
sg15
I400
sg16
g17
sg18
g17
sg19
V/Library/Fonts/Trebuchet MS Italic.ttf
p159
sg21
g22
sbag1
(g8
g3
NtRp160
(dp161
g11
g17
sg13
S'Mshtakan'
p162
sg15
I400
sg16
g17
sg18
g17
sg19
V/Library/Fonts/MshtakanRegular.ttf
p163
sg21
g22
sbag1
(g8
g3
NtRp164
(dp165
g11
g17
sg13
S'Osaka'
p166
sg15
I400
sg16
g17
sg18
g17
sg19
V/Library/Fonts/Osaka.ttf
p167
sg21
g22
sbag1
(g8
g3
NtRp168
(dp169
g11
g12
sg13
S'Gill Sans MT'
p170
sg15
I400
sg16
g17
sg18
g17
sg19
V/Library/Fonts/Microsoft/Gill Sans MT Italic.ttf
p171
sg21
g22
sbag1
(g8
g3
NtRp172
(dp173
g11
g17
sg13
S'Times New Roman'
p174
sg15
I500
sg16
g17
sg18
g17
sg19
V/Library/Fonts/Times New Roman.ttf
p175
sg21
g22
sbag1
(g8
g3
NtRp176
(dp177
g11
g17
sg13
S'LiSong Pro'
p178
sg15
I400
sg16
g17
sg18
g17
sg19
V/Library/Fonts/\u5137\u5b8b Pro.ttf
p179
sg21
g22
sbag1
(g8
g3
NtRp180
(dp181
g11
g17
sg13
S'Hiragino Maru Gothic ProN'
p182
sg15
I400
sg16
g17
sg18
g17
sg19
V/Library/Fonts/\u30d2\u30e9\u30ad\u3099\u30ce\u4e38\u30b3\u3099 ProN W4.otf
p183
sg21
g22
sbag1
(g8
g3
NtRp184
(dp185
g11
g12
sg13
S'Serto Jerusalem'
p186
sg15
I400
sg16
g17
sg18
g17
sg19
V/opt/X11/share/fonts/OTF/SyrCOMJerusalemItalic.otf
p187
sg21
g22
sbag1
(g8
g3
NtRp188
(dp189
g11
g17
sg13
S'AppleMyungjo'
p190
sg15
I400
sg16
g17
sg18
g17
sg19
V/Library/Fonts/AppleMyungjo.ttf
p191
sg21
g22
sbag1
(g8
g3
NtRp192
(dp193
g11
g17
sg13
S'Mishafi Gold'
p194
sg15
I400
sg16
g17
sg18
g17
sg19
V/Library/Fonts/Mishafi Gold.ttf
p195
sg21
g22
sbag1
(g8
g3
NtRp196
(dp197
g11
g17
sg13
S'Serto Mardin'
p198
sg15
I700
sg16
g17
sg18
g17
sg19
V/usr/X11R6/lib/X11/fonts/OTF/SyrCOMMardinBold.otf
p199
sg21
g22
sbag1
(g8
g3
NtRp200
(dp201
g11
g17
sg13
S'East Syriac Ctesiphon'
p202
sg15
I400
sg16
g17
sg18
g17
sg19
V/usr/X11/lib/X11/fonts/OTF/SyrCOMCtesiphon.otf
p203
sg21
g22
sbag1
(g8
g3
NtRp204
(dp205
g11
g17
sg13
S'Candara'
p206
sg15
I700
sg16
g17
sg18
g17
sg19
V/Library/Fonts/Microsoft/Candara Bold.ttf
p207
sg21
g22
sbag1
(g8
g3
NtRp208
(dp209
g11
g17
sg13
S'Tw Cen MT'
p210
sg15
I400
sg16
g17
sg18
g17
sg19
V/Library/Fonts/Microsoft/Tw Cen MT.ttf
p211
sg21
g22
sbag1
(g8
g3
NtRp212
(dp213
g11
g17
sg13
S'Corbel'
p214
sg15
I700
sg16
g17
sg18
g17
sg19
V/Library/Fonts/Microsoft/Corbel Bold.ttf
p215
sg21
g22
sbag1
(g8
g3
NtRp216
(dp217
g11
g17
sg13
S'Hiragino Kaku Gothic Pro'
p218
sg15
I700
sg16
g17
sg18
g17
sg19
V/Library/Fonts/\u30d2\u30e9\u30ad\u3099\u30ce\u89d2\u30b3\u3099 Pro W6.otf
p219
sg21
g22
sbag1
(g8
g3
NtRp220
(dp221
g11
g17
sg13
S'Hiragino Maru Gothic Pro'
p222
sg15
I400
sg16
g17
sg18
g17
sg19
V/Library/Fonts/\u30d2\u30e9\u30ad\u3099\u30ce\u4e38\u30b3\u3099 Pro W4.otf
p223
sg21
g22
sbag1
(g8
g3
NtRp224
(dp225
g11
g12
sg13
S'Arial'
p226
sg15
I700
sg16
g17
sg18
g17
sg19
V/Library/Fonts/Arial Bold Italic.ttf
p227
sg21
g22
sbag1
(g8
g3
NtRp228
(dp229
g11
g17
sg13
S'SignPainter'
p230
sg15
I400
sg16
g17
sg18
g17
sg19
V/Library/Fonts/SignPainter.otf
p231
sg21
g22
sbag1
(g8
g3
NtRp232
(dp233
g11
g17
sg13
S'Serto Batnan'
p234
sg15
I400
sg16
g17
sg18
g17
sg19
V/usr/X11/lib/X11/fonts/OTF/SyrCOMBatnan.otf
p235
sg21
g22
sbag1
(g8
g3
NtRp236
(dp237
g11
g17
sg13
S'Mshtakan'
p238
sg15
I700
sg16
g17
sg18
g17
sg19
V/Library/Fonts/MshtakanBold.ttf
p239
sg21
g22
sbag1
(g8
g3
NtRp240
(dp241
g11
g17
sg13
S'Serto Urhoy'
p242
sg15
I400
sg16
g17
sg18
g17
sg19
V/opt/X11/share/fonts/OTF/SyrCOMUrhoy.otf
p243
sg21
g22
sbag1
(g8
g3
NtRp244
(dp245
g11
g17
sg13
S'Calibri'
p246
sg15
I200
sg16
g17
sg18
g17
sg19
V/Library/Fonts/Microsoft/Calibril.ttf
p247
sg21
g22
sbag1
(g8
g3
NtRp248
(dp249
g11
g17
sg13
S'STIXSizeFiveSym'
p250
sg15
I400
sg16
g17
sg18
g17
sg19
V/Library/Fonts/STIXSizFiveSymReg.otf
p251
sg21
g22
sbag1
(g8
g3
NtRp252
(dp253
g11
g17
sg13
S'Serto Urhoy'
p254
sg15
I700
sg16
g17
sg18
g17
sg19
V/usr/X11/lib/X11/fonts/OTF/SyrCOMUrhoyBold.otf
p255
sg21
g22
sbag1
(g8
g3
NtRp256
(dp257
g11
g17
sg13
S'Luxi Mono'
p258
sg15
I400
sg16
g17
sg18
g17
sg19
V/opt/X11/share/fonts/TTF/luximr.ttf
p259
sg21
g22
sbag1
(g8
g3
NtRp260
(dp261
g11
g17
sg13
S'Gurmukhi MT'
p262
sg15
I400
sg16
g17
sg18
g17
sg19
V/Library/Fonts/Gurmukhi.ttf
p263
sg21
g22
sbag1
(g8
g3
NtRp264
(dp265
g11
g17
sg13
S'YuGothic'
p266
sg15
I700
sg16
g17
sg18
g17
sg19
V/Library/Fonts/Yu Gothic Bold.otf
p267
sg21
g22
sbag1
(g8
g3
NtRp268
(dp269
g11
g12
sg13
S'Cambria'
p270
sg15
I400
sg16
g17
sg18
g17
sg19
V/Library/Fonts/Microsoft/Cambria Italic.ttf
p271
sg21
g22
sbag1
(g8
g3
NtRp272
(dp273
g11
g12
sg13
S'Perpetua'
p274
sg15
I700
sg16
g17
sg18
g17
sg19
V/Library/Fonts/Microsoft/Perpetua Bold Italic.ttf
p275
sg21
g22
sbag1
(g8
g3
NtRp276
(dp277
g11
g17
sg13
S'Microsoft Tai Le'
p278
sg15
I700
sg16
g17
sg18
g17
sg19
V/Library/Fonts/Microsoft/TaiLeb.ttf
p279
sg21
g22
sbag1
(g8
g3
NtRp280
(dp281
g11
g17
sg13
S'Estrangelo Talada'
p282
sg15
I400
sg16
g17
sg18
g17
sg19
V/opt/X11/share/fonts/OTF/SyrCOMTalada.otf
p283
sg21
g22
sbag1
(g8
g3
NtRp284
(dp285
g11
g17
sg13
S'Verdana'
p286
sg15
I700
sg16
g17
sg18
g17
sg19
V/Library/Fonts/Microsoft/Verdana Bold.ttf
p287
sg21
g22
sbag1
(g8
g3
NtRp288
(dp289
g11
g17
sg13
S'Verdana'
p290
sg15
I400
sg16
g17
sg18
g17
sg19
V/Library/Fonts/Microsoft/Verdana.ttf
p291
sg21
g22
sbag1
(g8
g3
NtRp292
(dp293
g11
g17
sg13
S'Franklin Gothic Medium'
p294
sg15
I500
sg16
g17
sg18
g17
sg19
V/Library/Fonts/Microsoft/Franklin Gothic Medium.ttf
p295
sg21
g22
sbag1
(g8
g3
NtRp296
(dp297
g11
g17
sg13
S'PCMyungjo'
p298
sg15
I400
sg16
g17
sg18
g17
sg19
V/Library/Fonts/PCmyoungjo.ttf
p299
sg21
g22
sbag1
(g8
g3
NtRp300
(dp301
g11
g17
sg13
S'Estrangelo Quenneshrin'
p302
sg15
I400
sg16
g17
sg18
g17
sg19
V/opt/X11/share/fonts/OTF/SyrCOMQenNeshrin.otf
p303
sg21
g22
sbag1
(g8
g3
NtRp304
(dp305
g11
g12
sg13
S'Verdana'
p306
sg15
I700
sg16
g17
sg18
g17
sg19
V/Library/Fonts/Verdana Bold Italic.ttf
p307
sg21
g22
sbag1
(g8
g3
NtRp308
(dp309
g11
g17
sg13
S'Serto Malankara'
p310
sg15
I400
sg16
g17
sg18
g17
sg19
V/usr/X11/lib/X11/fonts/OTF/SyrCOMMalankara.otf
p311
sg21
g22
sbag1
(g8
g3
NtRp312
(dp313
g11
g17
sg13
S'Estrangelo Edessa'
p314
sg15
I400
sg16
g17
sg18
g17
sg19
V/usr/X11/lib/X11/fonts/OTF/SyrCOMEdessa.otf
p315
sg21
g22
sbag1
(g8
g3
NtRp316
(dp317
g11
g17
sg13
S'Kokonor'
p318
sg15
I400
sg16
g17
sg18
g17
sg19
V/Library/Fonts/Kokonor.ttf
p319
sg21
g22
sbag1
(g8
g3
NtRp320
(dp321
g11
g17
sg13
S'Hiragino Kaku Gothic ProN'
p322
sg15
I700
sg16
g17
sg18
g17
sg19
V/System/Library/Fonts/\u30d2\u30e9\u30ad\u3099\u30ce\u89d2\u30b3\u3099 ProN W6.otf
p323
sg21
g22
sbag1
(g8
g3
NtRp324
(dp325
g11
g17
sg13
S'Kailasa'
p326
sg15
I400
sg16
g17
sg18
g17
sg19
V/Library/Fonts/Kailasa.ttf
p327
sg21
g22
sbag1
(g8
g3
NtRp328
(dp329
g11
g17
sg13
S'Estrangelo Midyat'
p330
sg15
I400
sg16
g17
sg18
g17
sg19
V/opt/X11/share/fonts/OTF/SyrCOMMidyat.otf
p331
sg21
g22
sbag1
(g8
g3
NtRp332
(dp333
g11
g17
sg13
S'Luxi Serif'
p334
sg15
I700
sg16
g17
sg18
g17
sg19
V/opt/X11/share/fonts/TTF/luxirb.ttf
p335
sg21
g22
sbag1
(g8
g3
NtRp336
(dp337
g11
g12
sg13
S'STIXNonUnicode'
p338
sg15
I400
sg16
g17
sg18
g17
sg19
V/Library/Fonts/STIXNonUniIta.otf
p339
sg21
g22
sbag1
(g8
g3
NtRp340
(dp341
g11
g17
sg13
S'MS Mincho'
p342
sg15
I400
sg16
g17
sg18
g17
sg19
V/Library/Fonts/Microsoft/MS Mincho.ttf
p343
sg21
g22
sbag1
(g8
g3
NtRp344
(dp345
g11
g17
sg13
S'Luxi Mono'
p346
sg15
I700
sg16
g17
sg18
g17
sg19
V/usr/X11R6/lib/X11/fonts/TTF/luximb.ttf
p347
sg21
g22
sbag1
(g8
g3
NtRp348
(dp349
g11
g17
sg13
S'Estrangelo TurAbdin'
p350
sg15
I400
sg16
g17
sg18
g17
sg19
V/usr/X11R6/lib/X11/fonts/OTF/SyrCOMTurAbdin.otf
p351
sg21
g22
sbag1
(g8
g3
NtRp352
(dp353
g11
g17
sg13
S'Serto Jerusalem'
p354
sg15
I700
sg16
g17
sg18
g17
sg19
V/opt/X11/share/fonts/OTF/SyrCOMJerusalemBold.otf
p355
sg21
g22
sbag1
(g8
g3
NtRp356
(dp357
g11
g17
sg13
S'Apple SD Gothic Neo'
p358
sg15
I700
sg16
g17
sg18
g17
sg19
V/Library/Fonts/AppleSDGothicNeo-SemiBold.otf
p359
sg21
g22
sbag1
(g8
g3
NtRp360
(dp361
g11
g17
sg13
S'STIXNonUnicode'
p362
sg15
I700
sg16
g17
sg18
g17
sg19
V/Library/Fonts/STIXNonUniBol.otf
p363
sg21
g22
sbag1
(g8
g3
NtRp364
(dp365
g11
g17
sg13
S'Webdings'
p366
sg15
I400
sg16
g17
sg18
g17
sg19
V/Library/Fonts/Webdings.ttf
p367
sg21
g22
sbag1
(g8
g3
NtRp368
(dp369
g11
g17
sg13
S'Apple Braille'
p370
sg15
I400
sg16
g17
sg18
g17
sg19
V/System/Library/Fonts/Apple Braille Pinpoint 6 Dot.ttf
p371
sg21
g22
sbag1
(g8
g3
NtRp372
(dp373
g11
g17
sg13
S'Symbol'
p374
sg15
I400
sg16
g17
sg18
g17
sg19
V/System/Library/Fonts/Symbol.ttf
p375
sg21
g22
sbag1
(g8
g3
NtRp376
(dp377
g11
g17
sg13
S'STHeiti'
p378
sg15
I400
sg16
g17
sg18
g17
sg19
V/Library/Fonts/\u534e\u6587\u7ec6\u9ed1.ttf
p379
sg21
g22
sbag1
(g8
g3
NtRp380
(dp381
g11
g17
sg13
S'MingLiU_HKSCS-ExtB'
p382
sg15
I400
sg16
g17
sg18
g17
sg19
V/Library/Fonts/Microsoft/MingLiU_HKSCS-ExtB.ttf
p383
sg21
g22
sbag1
(g8
g3
NtRp384
(dp385
g11
g17
sg13
S'Luxi Serif'
p386
sg15
I400
sg16
g17
sg18
g17
sg19
V/usr/X11R6/lib/X11/fonts/TTF/luxirr.ttf
p387
sg21
g22
sbag1
(g8
g3
NtRp388
(dp389
g11
g12
sg13
S'Franklin Gothic Book'
p390
sg15
I400
sg16
g17
sg18
g17
sg19
V/Library/Fonts/Microsoft/Franklin Gothic Book Italic.ttf
p391
sg21
g22
sbag1
(g8
g3
NtRp392
(dp393
g11
g17
sg13
S'Goha-Tibeb Zemen'
p394
sg15
I400
sg16
g17
sg18
g17
sg19
V/usr/X11R6/lib/X11/fonts/OTF/GohaTibebZemen.otf
p395
sg21
g22
sbag1
(g8
g3
NtRp396
(dp397
g11
g12
sg13
S'Palatino Linotype'
p398
sg15
I700
sg16
g17
sg18
g17
sg19
V/Library/Fonts/Microsoft/Palatino Linotype Bold Italic.ttf
p399
sg21
g22
sbag1
(g8
g3
NtRp400
(dp401
g11
g17
sg13
S'Estrangelo Antioch'
p402
sg15
I400
sg16
g17
sg18
g17
sg19
V/opt/X11/share/fonts/OTF/SyrCOMAntioch.otf
p403
sg21
g22
sbag1
(g8
g3
NtRp404
(dp405
g11
g17
sg13
S'STIXIntegralsUpSm'
p406
sg15
I400
sg16
g17
sg18
g17
sg19
V/Library/Fonts/STIXIntUpSmReg.otf
p407
sg21
g22
sbag1
(g8
g3
NtRp408
(dp409
g11
g17
sg13
S'Meiryo'
p410
sg15
I400
sg16
g17
sg18
g17
sg19
V/Library/Fonts/Microsoft/Meiryo.ttf
p411
sg21
g22
sbag1
(g8
g3
NtRp412
(dp413
g11
g12
sg13
S'Courier New'
p414
sg15
I400
sg16
g17
sg18
g17
sg19
V/Library/Fonts/Courier New Italic.ttf
p415
sg21
g22
sbag1
(g8
g3
NtRp416
(dp417
g11
g17
sg13
S'Arial Black'
p418
sg15
I900
sg16
g17
sg18
g17
sg19
V/Library/Fonts/Arial Black.ttf
p419
sg21
g22
sbag1
(g8
g3
NtRp420
(dp421
g11
g12
sg13
S'STIXGeneral'
p422
sg15
I400
sg16
g17
sg18
g17
sg19
V/Library/Fonts/STIXGeneralItalic.otf
p423
sg21
g22
sbag1
(g8
g3
NtRp424
(dp425
g11
g17
sg13
S'STIXSizeFourSym'
p426
sg15
I400
sg16
g17
sg18
g17
sg19
V/Library/Fonts/STIXSizFourSymReg.otf
p427
sg21
g22
sbag1
(g8
g3
NtRp428
(dp429
g11
g17
sg13
S'Gill Sans MT'
p430
sg15
I400
sg16
g17
sg18
g17
sg19
V/Library/Fonts/Microsoft/Gill Sans MT.ttf
p431
sg21
g22
sbag1
(g8
g3
NtRp432
(dp433
g11
g17
sg13
S'Microsoft Yi Baiti'
p434
sg15
I400
sg16
g17
sg18
g17
sg19
V/Library/Fonts/Microsoft/msyi.ttf
p435
sg21
g22
sbag1
(g8
g3
NtRp436
(dp437
g11
g17
sg13
S'Apple SD Gothic Neo'
p438
sg15
I700
sg16
g17
sg18
g17
sg19
V/System/Library/Fonts/AppleSDGothicNeo-Bold.otf
p439
sg21
g22
sbag1
(g8
g3
NtRp440
(dp441
g11
g17
sg13
S'Consolas'
p442
sg15
I400
sg16
g17
sg18
g17
sg19
V/Library/Fonts/Microsoft/Consolas.ttf
p443
sg21
g22
sbag1
(g8
g3
NtRp444
(dp445
g11
g12
sg13
S'Perpetua'
p446
sg15
I400
sg16
g17
sg18
g17
sg19
V/Library/Fonts/Microsoft/Perpetua Italic.ttf
p447
sg21
g22
sbag1
(g8
g3
NtRp448
(dp449
g11
g17
sg13
S'Comic Sans MS'
p450
sg15
I400
sg16
g17
sg18
g17
sg19
V/Library/Fonts/Comic Sans MS.ttf
p451
sg21
g22
sbag1
(g8
g3
NtRp452
(dp453
g11
g17
sg13
S'PMingLiU'
p454
sg15
I400
sg16
g17
sg18
g17
sg19
V/Library/Fonts/Microsoft/PMingLiU.ttf
p455
sg21
g22
sbag1
(g8
g3
NtRp456
(dp457
g11
g17
sg13
S'Arial'
p458
sg15
I400
sg16
g17
sg18
g17
sg19
V/Library/Fonts/Microsoft/Arial.ttf
p459
sg21
g22
sbag1
(g8
g3
NtRp460
(dp461
g11
g17
sg13
S'STIXSizeFourSym'
p462
sg15
I700
sg16
g17
sg18
g17
sg19
V/Library/Fonts/STIXSizFourSymBol.otf
p463
sg21
g22
sbag1
(g8
g3
NtRp464
(dp465
g11
g17
sg13
S'Marlett'
p466
sg15
I400
sg16
g17
sg18
g17
sg19
V/Library/Fonts/Microsoft/Marlett.ttf
p467
sg21
g22
sbag1
(g8
g3
NtRp468
(dp469
g11
g17
sg13
S'Calibri'
p470
sg15
I700
sg16
g17
sg18
g17
sg19
V/Library/Fonts/Microsoft/Calibri Bold.ttf
p471
sg21
g22
sbag1
(g8
g3
NtRp472
(dp473
g11
g17
sg13
S'Yuppy SC'
p474
sg15
I400
sg16
g17
sg18
g17
sg19
V/Library/Fonts/YuppySC-Regular.otf
p475
sg21
g22
sbag1
(g8
g3
NtRp476
(dp477
g11
g17
sg13
S'Wingdings'
p478
sg15
I400
sg16
g17
sg18
g17
sg19
V/Library/Fonts/Wingdings.ttf
p479
sg21
g22
sbag1
(g8
g3
NtRp480
(dp481
g11
g17
sg13
S'Impact'
p482
sg15
I400
sg16
g17
sg18
g17
sg19
V/Library/Fonts/Impact.ttf
p483
sg21
g22
sbag1
(g8
g3
NtRp484
(dp485
g11
g17
sg13
S'Apple Braille'
p486
sg15
I400
sg16
g17
sg18
g17
sg19
V/System/Library/Fonts/Apple Braille Outline 6 Dot.ttf
p487
sg21
g22
sbag1
(g8
g3
NtRp488
(dp489
g11
g17
sg13
S'Tahoma'
p490
sg15
I700
sg16
g17
sg18
g17
sg19
V/Library/Fonts/Tahoma Bold.ttf
p491
sg21
g22
sbag1
(g8
g3
NtRp492
(dp493
g11
g12
sg13
S'Georgia'
p494
sg15
I700
sg16
g17
sg18
g17
sg19
V/Library/Fonts/Georgia Bold Italic.ttf
p495
sg21
g22
sbag1
(g8
g3
NtRp496
(dp497
g11
g45
sg13
S'Luxi Mono'
p498
sg15
I700
sg16
g17
sg18
g17
sg19
V/usr/X11/lib/X11/fonts/TTF/luximbi.ttf
p499
sg21
g22
sbag1
(g8
g3
NtRp500
(dp501
g11
g17
sg13
S'Hoefler Text'
p502
sg15
I400
sg16
g17
sg18
g17
sg19
V/Library/Fonts/Hoefler Text Ornaments.ttf
p503
sg21
g22
sbag1
(g8
g3
NtRp504
(dp505
g11
g17
sg13
S'Wawati SC'
p506
sg15
I400
sg16
g17
sg18
g17
sg19
V/Library/Fonts/WawaSC-Regular.otf
p507
sg21
g22
sbag1
(g8
g3
NtRp508
(dp509
g11
g17
sg13
S'PilGi'
p510
sg15
I400
sg16
g17
sg18
g17
sg19
V/Library/Fonts/Pilgiche.ttf
p511
sg21
g22
sbag1
(g8
g3
NtRp512
(dp513
g11
g12
sg13
S'Verdana'
p514
sg15
I400
sg16
g17
sg18
g17
sg19
V/Library/Fonts/Microsoft/Verdana Italic.ttf
p515
sg21
g22
sbag1
(g8
g3
NtRp516
(dp517
g11
g17
sg13
S'YuGothic'
p518
sg15
I400
sg16
g17
sg18
g17
sg19
V/Library/Fonts/Yu Gothic Medium.otf
p519
sg21
g22
sbag1
(g8
g3
NtRp520
(dp521
g11
g17
sg13
S'Gujarati MT'
p522
sg15
I700
sg16
g17
sg18
g17
sg19
V/Library/Fonts/GujaratiMTBold.ttf
p523
sg21
g22
sbag1
(g8
g3
NtRp524
(dp525
g11
g17
sg13
S'Serto Mardin'
p526
sg15
I400
sg16
g17
sg18
g17
sg19
V/opt/X11/share/fonts/OTF/SyrCOMMardin.otf
p527
sg21
g22
sbag1
(g8
g3
NtRp528
(dp529
g11
g17
sg13
S'East Syriac Adiabene'
p530
sg15
I400
sg16
g17
sg18
g17
sg19
V/opt/X11/share/fonts/OTF/SyrCOMAdiabene.otf
p531
sg21
g22
sbag1
(g8
g3
NtRp532
(dp533
g11
g12
sg13
S'Arial'
p534
sg15
I400
sg16
g17
sg18
g17
sg19
V/Library/Fonts/Microsoft/Arial Italic.ttf
p535
sg21
g22
sbag1
(g8
g3
NtRp536
(dp537
g11
g45
sg13
S'Luxi Sans'
p538
sg15
I400
sg16
g17
sg18
g17
sg19
V/usr/X11/lib/X11/fonts/TTF/luxisri.ttf
p539
sg21
g22
sbag1
(g8
g3
NtRp540
(dp541
g11
g17
sg13
S'Zapf Dingbats'
p542
sg15
I400
sg16
g17
sg18
g17
sg19
V/System/Library/Fonts/ZapfDingbats.ttf
p543
sg21
g22
sbag1
(g8
g3
NtRp544
(dp545
g11
g12
sg13
S'Calibri'
p546
sg15
I700
sg16
g17
sg18
g17
sg19
V/Library/Fonts/Microsoft/Calibri Bold Italic.ttf
p547
sg21
g22
sbag1
(g8
g3
NtRp548
(dp549
g11
g17
sg13
S'STIXSizeThreeSym'
p550
sg15
I700
sg16
g17
sg18
g17
sg19
V/Library/Fonts/STIXSizThreeSymBol.otf
p551
sg21
g22
sbag1
(g8
g3
NtRp552
(dp553
g11
g12
sg13
S'Corbel'
p554
sg15
I700
sg16
g17
sg18
g17
sg19
V/Library/Fonts/Microsoft/Corbel Bold Italic.ttf
p555
sg21
g22
sbag1
(g8
g3
NtRp556
(dp557
g11
g12
sg13
S'Times New Roman'
p558
sg15
I700
sg16
g17
sg18
g17
sg19
V/Library/Fonts/Microsoft/Times New Roman Bold Italic.ttf
p559
sg21
g22
sbag1
(g8
g3
NtRp560
(dp561
g11
g17
sg13
S'Luminari'
p562
sg15
I400
sg16
g17
sg18
g17
sg19
V/Library/Fonts/Luminari.ttf
p563
sg21
g22
sbag1
(g8
g3
NtRp564
(dp565
g11
g12
sg13
S'Trebuchet MS'
p566
sg15
I700
sg16
g17
sg18
g17
sg19
V/Library/Fonts/Trebuchet MS Bold Italic.ttf
p567
sg21
g22
sbag1
(g8
g3
NtRp568
(dp569
g11
g17
sg13
S'STIXIntegralsSm'
p570
sg15
I700
sg16
g17
sg18
g17
sg19
V/Library/Fonts/STIXIntSmBol.otf
p571
sg21
g22
sbag1
(g8
g3
NtRp572
(dp573
g11
g17
sg13
S'Wingdings 3'
p574
sg15
I400
sg16
g17
sg18
g17
sg19
V/Library/Fonts/Microsoft/Wingdings 3.ttf
p575
sg21
g22
sbag1
(g8
g3
NtRp576
(dp577
g11
g17
sg13
S'Bradley Hand'
p578
sg15
I700
sg16
g17
sg18
g17
sg19
V/Library/Fonts/Bradley Hand Bold.ttf
p579
sg21
g22
sbag1
(g8
g3
NtRp580
(dp581
g11
g17
sg13
S'Apple SD Gothic Neo'
p582
sg15
I200
sg16
g17
sg18
g17
sg19
V/Library/Fonts/AppleSDGothicNeo-Light.otf
p583
sg21
g22
sbag1
(g8
g3
NtRp584
(dp585
g11
g12
sg13
S'Tw Cen MT'
p586
sg15
I400
sg16
g17
sg18
g17
sg19
V/Library/Fonts/Microsoft/Tw Cen MT Italic.ttf
p587
sg21
g22
sbag1
(g8
g3
NtRp588
(dp589
g11
g17
sg13
S'Bookshelf Symbol 7'
p590
sg15
I400
sg16
g17
sg18
g17
sg19
V/Library/Fonts/Microsoft/Bookshelf Symbol 7.ttf
p591
sg21
g22
sbag1
(g8
g3
NtRp592
(dp593
g11
g17
sg13
S'Consolas'
p594
sg15
I700
sg16
g17
sg18
g17
sg19
V/Library/Fonts/Microsoft/Consolas Bold.ttf
p595
sg21
g22
sbag1
(g8
g3
NtRp596
(dp597
g11
g17
sg13
S'Hiragino Sans GB'
p598
sg15
I400
sg16
g17
sg18
g17
sg19
V/Library/Fonts/Hiragino Sans GB W3.otf
p599
sg21
g22
sbag1
(g8
g3
NtRp600
(dp601
g11
g17
sg13
S'STFangsong'
p602
sg15
I400
sg16
g17
sg18
g17
sg19
V/Library/Fonts/\u534e\u6587\u4eff\u5b8b.ttf
p603
sg21
g22
sbag1
(g8
g3
NtRp604
(dp605
g11
g17
sg13
S'STHeiti'
p606
sg15
I400
sg16
g17
sg18
g17
sg19
V/Library/Fonts/\u534e\u6587\u9ed1\u4f53.ttf
p607
sg21
g22
sbag1
(g8
g3
NtRp608
(dp609
g11
g17
sg13
S'Farisi'
p610
sg15
I400
sg16
g17
sg18
g17
sg19
V/Library/Fonts/Farisi.ttf
p611
sg21
g22
sbag1
(g8
g3
NtRp612
(dp613
g11
g17
sg13
S'STIXIntegralsUpSm'
p614
sg15
I700
sg16
g17
sg18
g17
sg19
V/Library/Fonts/STIXIntUpSmBol.otf
p615
sg21
g22
sbag1
(g8
g3
NtRp616
(dp617
g11
g17
sg13
S'Luxi Sans'
p618
sg15
I700
sg16
g17
sg18
g17
sg19
V/usr/X11/lib/X11/fonts/TTF/luxisb.ttf
p619
sg21
g22
sbag1
(g8
g3
NtRp620
(dp621
g11
g17
sg13
S'STIXNonUnicode'
p622
sg15
I400
sg16
g17
sg18
g17
sg19
V/Library/Fonts/STIXNonUni.otf
p623
sg21
g22
sbag1
(g8
g3
NtRp624
(dp625
g11
g17
sg13
S'Bodoni 72 Smallcaps'
p626
sg15
I400
sg16
g17
sg18
g17
sg19
V/Library/Fonts/Bodoni 72 Smallcaps Book.ttf
p627
sg21
g22
sbag1
(g8
g3
NtRp628
(dp629
g11
g12
sg13
S'STIXNonUnicode'
p630
sg15
I700
sg16
g17
sg18
g17
sg19
V/Library/Fonts/STIXNonUniBolIta.otf
p631
sg21
g22
sbag1
(g8
g3
NtRp632
(dp633
g11
g17
sg13
S'Luxi Sans'
p634
sg15
I400
sg16
g17
sg18
g17
sg19
V/opt/X11/share/fonts/TTF/luxisr.ttf
p635
sg21
g22
sbag1
(g8
g3
NtRp636
(dp637
g11
g17
sg13
S'SimHei'
p638
sg15
I400
sg16
g17
sg18
g17
sg19
V/Library/Fonts/Microsoft/SimHei.ttf
p639
sg21
g22
sbag1
(g8
g3
NtRp640
(dp641
g11
g45
sg13
S'Luxi Serif'
p642
sg15
I700
sg16
g17
sg18
g17
sg19
V/usr/X11R6/lib/X11/fonts/TTF/luxirbi.ttf
p643
sg21
g22
sbag1
(g8
g3
NtRp644
(dp645
g11
g17
sg13
S'STIXIntegralsSm'
p646
sg15
I400
sg16
g17
sg18
g17
sg19
V/Library/Fonts/STIXIntSmReg.otf
p647
sg21
g22
sbag1
(g8
g3
NtRp648
(dp649
g11
g17
sg13
S'Georgia'
p650
sg15
I700
sg16
g17
sg18
g17
sg19
V/Library/Fonts/Georgia Bold.ttf
p651
sg21
g22
sbag1
(g8
g3
NtRp652
(dp653
g11
g17
sg13
S'Chalkduster'
p654
sg15
I400
sg16
g17
sg18
g17
sg19
V/Library/Fonts/Chalkduster.ttf
p655
sg21
g22
sbag1
(g8
g3
NtRp656
(dp657
g11
g17
sg13
S'Weibei TC'
p658
sg15
I700
sg16
g17
sg18
g17
sg19
V/Library/Fonts/WeibeiTC-Bold.otf
p659
sg21
g22
sbag1
(g8
g3
NtRp660
(dp661
g11
g17
sg13
S'Serto Batnan'
p662
sg15
I700
sg16
g17
sg18
g17
sg19
V/usr/X11/lib/X11/fonts/OTF/SyrCOMBatnanBold.otf
p663
sg21
g22
sbag1
(g8
g3
NtRp664
(dp665
g11
g17
sg13
S'STIXIntegralsUp'
p666
sg15
I400
sg16
g17
sg18
g17
sg19
V/Library/Fonts/STIXIntUpReg.otf
p667
sg21
g22
sbag1
(g8
g3
NtRp668
(dp669
g11
g17
sg13
S'Big Caslon'
p670
sg15
I500
sg16
g17
sg18
g17
sg19
V/Library/Fonts/BigCaslon.ttf
p671
sg21
g22
sbag1
(g8
g3
NtRp672
(dp673
g11
g17
sg13
S'Ayuthaya'
p674
sg15
I400
sg16
g17
sg18
g17
sg19
V/Library/Fonts/Ayuthaya.ttf
p675
sg21
g22
sbag1
(g8
g3
NtRp676
(dp677
g11
g17
sg13
S'Serto Kharput'
p678
sg15
I400
sg16
g17
sg18
g17
sg19
V/usr/X11R6/lib/X11/fonts/OTF/SyrCOMKharput.otf
p679
sg21
g22
sbag1
(g8
g3
NtRp680
(dp681
g11
g17
sg13
S'Goha-Tibeb Zemen'
p682
sg15
I400
sg16
g17
sg18
g17
sg19
V/opt/X11/share/fonts/TTF/GohaTibebZemen.ttf
p683
sg21
g22
sbag1
(g8
g3
NtRp684
(dp685
g11
g17
sg13
S'YuMincho'
p686
sg15
I400
sg16
g17
sg18
g17
sg19
V/Library/Fonts/Yu Mincho Medium.otf
p687
sg21
g22
sbag1
(g8
g3
NtRp688
(dp689
g11
g17
sg13
S'Wingdings 2'
p690
sg15
I400
sg16
g17
sg18
g17
sg19
V/Library/Fonts/Microsoft/Wingdings 2.ttf
p691
sg21
g22
sbag1
(g8
g3
NtRp692
(dp693
g11
g17
sg13
S'Andale Mono'
p694
sg15
I400
sg16
g17
sg18
g17
sg19
V/Library/Fonts/Andale Mono.ttf
p695
sg21
g22
sbag1
(g8
g3
NtRp696
(dp697
g11
g12
sg13
S'Consolas'
p698
sg15
I400
sg16
g17
sg18
g17
sg19
V/Library/Fonts/Microsoft/Consolas Italic.ttf
p699
sg21
g22
sbag1
(g8
g3
NtRp700
(dp701
g11
g17
sg13
S'Silom'
p702
sg15
I400
sg16
g17
sg18
g17
sg19
V/Library/Fonts/Silom.ttf
p703
sg21
g22
sbag1
(g8
g3
NtRp704
(dp705
g11
g45
sg13
S'Mshtakan'
p706
sg15
I700
sg16
g17
sg18
g17
sg19
V/Library/Fonts/MshtakanBoldOblique.ttf
p707
sg21
g22
sbag1
(g8
g3
NtRp708
(dp709
g11
g12
sg13
S'Calibri'
p710
sg15
I400
sg16
g17
sg18
g17
sg19
V/Library/Fonts/Microsoft/Calibri Italic.ttf
p711
sg21
g22
sbag1
(g8
g3
NtRp712
(dp713
g11
g17
sg13
S'Candara'
p714
sg15
I400
sg16
g17
sg18
g17
sg19
V/Library/Fonts/Microsoft/Candara.ttf
p715
sg21
g22
sbag1
(g8
g3
NtRp716
(dp717
g11
g17
sg13
S'MingLiU'
p718
sg15
I400
sg16
g17
sg18
g17
sg19
V/Library/Fonts/Microsoft/MingLiU.ttf
p719
sg21
g22
sbag1
(g8
g3
NtRp720
(dp721
g11
g17
sg13
S'Gulim'
p722
sg15
I400
sg16
g17
sg18
g17
sg19
V/Library/Fonts/Microsoft/Gulim.ttf
p723
sg21
g22
sbag1
(g8
g3
NtRp724
(dp725
g11
g17
sg13
S'Lao Sangam MN'
p726
sg15
I400
sg16
g17
sg18
g17
sg19
V/Library/Fonts/Lao Sangam MN.ttf
p727
sg21
g22
sbag1
(g8
g3
NtRp728
(dp729
g11
g17
sg13
S'Hiragino Mincho Pro'
p730
sg15
I700
sg16
g17
sg18
g17
sg19
V/Library/Fonts/\u30d2\u30e9\u30ad\u3099\u30ce\u660e\u671d Pro W6.otf
p731
sg21
g22
sbag1
(g8
g3
NtRp732
(dp733
g11
g17
sg13
S'Estrangelo Nisibin Outline'
p734
sg15
I400
sg16
g17
sg18
g17
sg19
V/usr/X11/lib/X11/fonts/OTF/SyrCOMNisibinOutline.otf
p735
sg21
g22
sbag1
(g8
g3
NtRp736
(dp737
g11
g17
sg13
S'Bodoni Ornaments'
p738
sg15
I400
sg16
g17
sg18
g17
sg19
V/Library/Fonts/Bodoni Ornaments.ttf
p739
sg21
g22
sbag1
(g8
g3
NtRp740
(dp741
g11
g12
sg13
S'Cambria'
p742
sg15
I700
sg16
g17
sg18
g17
sg19
V/Library/Fonts/Microsoft/Cambria Bold Italic.ttf
p743
sg21
g22
sbag1
(g8
g3
NtRp744
(dp745
g11
g17
sg13
S'Gabriola'
p746
sg15
I400
sg16
g17
sg18
g17
sg19
V/Library/Fonts/Microsoft/Gabriola.ttf
p747
sg21
g22
sbag1
(g8
g3
NtRp748
(dp749
g11
g17
sg13
S'Serto Jerusalem Outline'
p750
sg15
I400
sg16
g17
sg18
g17
sg19
V/opt/X11/share/fonts/OTF/SyrCOMJerusalemOutline.otf
p751
sg21
g22
sbag1
(g8
g3
NtRp752
(dp753
g11
g45
sg13
S'Luxi Sans'
p754
sg15
I700
sg16
g17
sg18
g17
sg19
V/opt/X11/share/fonts/TTF/luxisbi.ttf
p755
sg21
g22
sbag1
(g8
g3
NtRp756
(dp757
g11
g17
sg13
S'STIXSizeThreeSym'
p758
sg15
I400
sg16
g17
sg18
g17
sg19
V/Library/Fonts/STIXSizThreeSymReg.otf
p759
sg21
g22
sbag1
(g8
g3
NtRp760
(dp761
g11
g17
sg13
S'DIN Condensed'
p762
sg15
I700
sg16
Vcondensed
p763
sg18
g17
sg19
V/Library/Fonts/DIN Condensed Bold.ttf
p764
sg21
g22
sbag1
(g8
g3
NtRp765
(dp766
g11
g45
sg13
S'Luxi Serif'
p767
sg15
I400
sg16
g17
sg18
g17
sg19
V/usr/X11R6/lib/X11/fonts/TTF/luxirri.ttf
p768
sg21
g22
sbag1
(g8
g3
NtRp769
(dp770
g11
g17
sg13
S'Microsoft Himalaya'
p771
sg15
I400
sg16
g17
sg18
g17
sg19
V/Library/Fonts/Microsoft/himalaya.ttf
p772
sg21
g22
sbag1
(g8
g3
NtRp773
(dp774
g11
g17
sg13
S'Estrangelo Nisibin'
p775
sg15
I400
sg16
g17
sg18
g17
sg19
V/usr/X11/lib/X11/fonts/OTF/SyrCOMNisibin.otf
p776
sg21
g22
sbag1
(g8
g3
NtRp777
(dp778
g11
g17
sg13
S'AppleGothic'
p779
sg15
I400
sg16
g17
sg18
g17
sg19
V/Library/Fonts/AppleGothic.ttf
p780
sg21
g22
sbag1
(g8
g3
NtRp781
(dp782
g11
g17
sg13
S'Arial Narrow'
p783
sg15
I400
sg16
g763
sg18
g17
sg19
V/Library/Fonts/Arial Narrow.ttf
p784
sg21
g22
sbag1
(g8
g3
NtRp785
(dp786
g11
g45
sg13
S'Mshtakan'
p787
sg15
I400
sg16
g17
sg18
g17
sg19
V/Library/Fonts/MshtakanOblique.ttf
p788
sg21
g22
sbag1
(g8
g3
NtRp789
(dp790
g11
g12
sg13
S'Times New Roman'
p791
sg15
I500
sg16
g17
sg18
g17
sg19
V/Library/Fonts/Microsoft/Times New Roman Italic.ttf
p792
sg21
g22
sbag1
(g8
g3
NtRp793
(dp794
g11
g17
sg13
S'PMingLiU-ExtB'
p795
sg15
I400
sg16
g17
sg18
g17
sg19
V/Library/Fonts/Microsoft/PMingLiU-ExtB.ttf
p796
sg21
g22
sbag1
(g8
g3
NtRp797
(dp798
g11
g45
sg13
S'Luxi Mono'
p799
sg15
I400
sg16
g17
sg18
g17
sg19
V/usr/X11/lib/X11/fonts/TTF/luximri.ttf
p800
sg21
g22
sbag1
(g8
g3
NtRp801
(dp802
g11
g17
sg13
S'Myanmar Sangam MN'
p803
sg15
I400
sg16
g17
sg18
g17
sg19
V/Library/Fonts/Myanmar Sangam MN.ttf
p804
sg21
g22
sbag1
(g8
g3
NtRp805
(dp806
g11
g17
sg13
S'Arial Narrow'
p807
sg15
I700
sg16
g763
sg18
g17
sg19
V/Library/Fonts/Arial Narrow Bold.ttf
p808
sg21
g22
sbag1
(g8
g3
NtRp809
(dp810
g11
g17
sg13
S'Georgia'
p811
sg15
I400
sg16
g17
sg18
g17
sg19
V/Library/Fonts/Georgia.ttf
p812
sg21
g22
sbag1
(g8
g3
NtRp813
(dp814
g11
g17
sg13
S'Trebuchet MS'
p815
sg15
I700
sg16
g17
sg18
g17
sg19
V/Library/Fonts/Trebuchet MS Bold.ttf
p816
sg21
g22
sbag1
(g8
g3
NtRp817
(dp818
g11
g17
sg13
S'Constantia'
p819
sg15
I700
sg16
g17
sg18
g17
sg19
V/Library/Fonts/Microsoft/Constantia Bold.ttf
p820
sg21
g22
sbag1
(g8
g3
NtRp821
(dp822
g11
g12
sg13
S'Arial Narrow'
p823
sg15
I400
sg16
g763
sg18
g17
sg19
V/Library/Fonts/Arial Narrow Italic.ttf
p824
sg21
g22
sbag1
(g8
g3
NtRp825
(dp826
g11
g17
sg13
S'Apple SD Gothic Neo'
p827
sg15
I400
sg16
g17
sg18
g17
sg19
V/System/Library/Fonts/AppleSDGothicNeo-Regular.otf
p828
sg21
g22
sbag1
(g8
g3
NtRp829
(dp830
g11
g17
sg13
S'Arial'
p831
sg15
I700
sg16
g17
sg18
g17
sg19
V/Library/Fonts/Microsoft/Arial Bold.ttf
p832
sg21
g22
sbag1
(g8
g3
NtRp833
(dp834
g11
g17
sg13
S'Tw Cen MT'
p835
sg15
I700
sg16
g17
sg18
g17
sg19
V/Library/Fonts/Microsoft/Tw Cen MT Bold.ttf
p836
sg21
g22
sbag1
(g8
g3
NtRp837
(dp838
g11
g17
sg13
S'Plantagenet Cherokee'
p839
sg15
I400
sg16
g17
sg18
g17
sg19
V/Library/Fonts/PlantagenetCherokee.ttf
p840
sg21
g22
sbag1
(g8
g3
NtRp841
(dp842
g11
g12
sg13
S'Brush Script MT'
p843
sg15
I400
sg16
g17
sg18
g17
sg19
V/Library/Fonts/Microsoft/Brush Script.ttf
p844
sg21
g22
sbag1
(g8
g3
NtRp845
(dp846
g11
g12
sg13
S'Tw Cen MT'
p847
sg15
I700
sg16
g17
sg18
g17
sg19
V/Library/Fonts/Microsoft/Tw Cen MT Bold Italic.ttf
p848
sg21
g22
sbag1
(g8
g3
NtRp849
(dp850
g11
g17
sg13
S'STIXVariants'
p851
sg15
I400
sg16
g17
sg18
g17
sg19
V/Library/Fonts/STIXVar.otf
p852
sg21
g22
sbag1
(g8
g3
NtRp853
(dp854
g11
g17
sg13
S'Mishafi'
p855
sg15
I400
sg16
g17
sg18
g17
sg19
V/Library/Fonts/Mishafi.ttf
p856
sg21
g22
sbag1
(g8
g3
NtRp857
(dp858
g11
g12
sg13
S'Candara'
p859
sg15
I700
sg16
g17
sg18
g17
sg19
V/Library/Fonts/Microsoft/Candara Bold Italic.ttf
p860
sg21
g22
sbag1
(g8
g3
NtRp861
(dp862
g11
g17
sg13
S'Cambria Math'
p863
sg15
I400
sg16
g17
sg18
g17
sg19
V/Library/Fonts/Microsoft/Cambria Math.ttf
p864
sg21
g22
sbag1
(g8
g3
NtRp865
(dp866
g11
g17
sg13
S'Serto Jerusalem'
p867
sg15
I400
sg16
g17
sg18
g17
sg19
V/usr/X11R6/lib/X11/fonts/OTF/SyrCOMJerusalem.otf
p868
sg21
g22
sbag1
(g8
g3
NtRp869
(dp870
g11
g17
sg13
S'Skia'
p871
sg15
I400
sg16
g17
sg18
g17
sg19
V/Library/Fonts/Skia.ttf
p872
sg21
g22
sbag1
(g8
g3
NtRp873
(dp874
g11
g17
sg13
S'YuMincho'
p875
sg15
I700
sg16
g17
sg18
g17
sg19
V/Library/Fonts/Yu Mincho Demibold.otf
p876
sg21
g22
sbag1
(g8
g3
NtRp877
(dp878
g11
g17
sg13
S'Lucida Console'
p879
sg15
I400
sg16
g17
sg18
g17
sg19
V/Library/Fonts/Microsoft/Lucida Console.ttf
p880
sg21
g22
sbag1
(g8
g3
NtRp881
(dp882
g11
g17
sg13
S'Perpetua'
p883
sg15
I400
sg16
g17
sg18
g17
sg19
V/Library/Fonts/Microsoft/Perpetua.ttf
p884
sg21
g22
sbag1
(g8
g3
NtRp885
(dp886
g11
g17
sg13
S'Cambria'
p887
sg15
I700
sg16
g17
sg18
g17
sg19
V/Library/Fonts/Microsoft/Cambria Bold.ttf
p888
sg21
g22
sbag1
(g8
g3
NtRp889
(dp890
g11
g12
sg13
S'Courier New'
p891
sg15
I700
sg16
g17
sg18
g17
sg19
V/Library/Fonts/Courier New Bold Italic.ttf
p892
sg21
g22
sbag1
(g8
g3
NtRp893
(dp894
g11
g17
sg13
S'Arial Rounded MT Bold'
p895
sg15
I700
sg16
g17
sg18
g17
sg19
V/Library/Fonts/Arial Rounded Bold.ttf
p896
sg21
g22
sbag1
(g8
g3
NtRp897
(dp898
g11
g17
sg13
S'Hiragino Kaku Gothic Std'
p899
sg15
I700
sg16
g17
sg18
g17
sg19
V/Library/Fonts/\u30d2\u30e9\u30ad\u3099\u30ce\u89d2\u30b3\u3099 Std W8.otf
p900
sg21
g22
sbag1
(g8
g3
NtRp901
(dp902
g11
g17
sg13
S'STIXSizeOneSym'
p903
sg15
I400
sg16
g17
sg18
g17
sg19
V/Library/Fonts/STIXSizOneSymReg.otf
p904
sg21
g22
sbag1
(g8
g3
NtRp905
(dp906
g11
g17
sg13
S'MingLiU-ExtB'
p907
sg15
I400
sg16
g17
sg18
g17
sg19
V/Library/Fonts/Microsoft/MingLiU-ExtB.ttf
p908
sg21
g22
sbag1
(g8
g3
NtRp909
(dp910
g11
g12
sg13
S'Franklin Gothic Medium'
p911
sg15
I500
sg16
g17
sg18
g17
sg19
V/Library/Fonts/Microsoft/Franklin Gothic Medium Italic.ttf
p912
sg21
g22
sbag1
(g8
g3
NtRp913
(dp914
g11
g17
sg13
S'Khmer Sangam MN'
p915
sg15
I400
sg16
g17
sg18
g17
sg19
V/Library/Fonts/Khmer Sangam MN.ttf
p916
sg21
g22
sbag1
(g8
g3
NtRp917
(dp918
g11
g17
sg13
S'InaiMathi'
p919
sg15
I400
sg16
g17
sg18
g17
sg19
V/Library/Fonts/InaiMathi.ttf
p920
sg21
g22
sbag1
(g8
g3
NtRp921
(dp922
g11
g17
sg13
S'Cambria'
p923
sg15
I400
sg16
g17
sg18
g17
sg19
V/Library/Fonts/Microsoft/Cambria.ttf
p924
sg21
g22
sbag1
(g8
g3
NtRp925
(dp926
g11
g17
sg13
S'Perpetua'
p927
sg15
I700
sg16
g17
sg18
g17
sg19
V/Library/Fonts/Microsoft/Perpetua Bold.ttf
p928
sg21
g22
sbag1
(g8
g3
NtRp929
(dp930
g11
g17
sg13
S'Batang'
p931
sg15
I400
sg16
g17
sg18
g17
sg19
V/Library/Fonts/Microsoft/Batang.ttf
p932
sg21
g22
sbag1
(g8
g3
NtRp933
(dp934
g11
g17
sg13
S'Hiragino Mincho ProN'
p935
sg15
I700
sg16
g17
sg18
g17
sg19
V/System/Library/Fonts/\u30d2\u30e9\u30ad\u3099\u30ce\u660e\u671d ProN W6.otf
p936
sg21
g22
sbag1
(g8
g3
NtRp937
(dp938
g11
g17
sg13
S'HeadLineA'
p939
sg15
I400
sg16
g17
sg18
g17
sg19
V/Library/Fonts/HeadlineA.ttf
p940
sg21
g22
sbag1
(g8
g3
NtRp941
(dp942
g11
g17
sg13
S'.Keyboard'
p943
sg15
I400
sg16
g17
sg18
g17
sg19
V/System/Library/Fonts/Keyboard.ttf
p944
sg21
g22
sbag1
(g8
g3
NtRp945
(dp946
g11
g17
sg13
S'Lucida Sans Unicode'
p947
sg15
I400
sg16
g17
sg18
g17
sg19
V/Library/Fonts/Microsoft/Lucida Sans Unicode.ttf
p948
sg21
g22
sbag1
(g8
g3
NtRp949
(dp950
g11
g17
sg13
S'Hiragino Sans GB'
p951
sg15
I700
sg16
g17
sg18
g17
sg19
V/Library/Fonts/Hiragino Sans GB W6.otf
p952
sg21
g22
sbag1
(g8
g3
NtRp953
(dp954
g11
g12
sg13
S'Consolas'
p955
sg15
I700
sg16
g17
sg18
g17
sg19
V/Library/Fonts/Microsoft/Consolas Bold Italic.ttf
p956
sg21
g22
sbag1
(g8
g3
NtRp957
(dp958
g11
g17
sg13
S'Microsoft Sans Serif'
p959
sg15
I400
sg16
g17
sg18
g17
sg19
V/Library/Fonts/Microsoft Sans Serif.ttf
p960
sg21
g22
sbag1
(g8
g3
NtRp961
(dp962
g11
g17
sg13
S'STIXIntegralsUpD'
p963
sg15
I700
sg16
g17
sg18
g17
sg19
V/Library/Fonts/STIXIntUpDBol.otf
p964
sg21
g22
sbag1
(g8
g3
NtRp965
(dp966
g11
g17
sg13
S'STIXGeneral'
p967
sg15
I400
sg16
g17
sg18
g17
sg19
V/Library/Fonts/STIXGeneral.otf
p968
sg21
g22
sbag1
(g8
g3
NtRp969
(dp970
g11
g17
sg13
S'Yuppy TC'
p971
sg15
I400
sg16
g17
sg18
g17
sg19
V/Library/Fonts/YuppyTC-Regular.otf
p972
sg21
g22
sbag1
(g8
g3
NtRp973
(dp974
g11
g17
sg13
S'Apple Chancery'
p975
sg15
I400
sg16
g17
sg18
g17
sg19
V/Library/Fonts/Apple Chancery.ttf
p976
sg21
g22
sbag1
(g8
g3
NtRp977
(dp978
g11
g17
sg13
S'STIXSizeOneSym'
p979
sg15
I700
sg16
g17
sg18
g17
sg19
V/Library/Fonts/STIXSizOneSymBol.otf
p980
sg21
g22
sbag1
(g8
g3
NtRp981
(dp982
g11
g17
sg13
S'SimSun-ExtB'
p983
sg15
I400
sg16
g17
sg18
g17
sg19
V/Library/Fonts/Microsoft/SimSun-ExtB.ttf
p984
sg21
g22
sbag1
(g8
g3
NtRp985
(dp986
g11
g17
sg13
S'Palatino Linotype'
p987
sg15
I400
sg16
g17
sg18
g17
sg19
V/Library/Fonts/Microsoft/Palatino Linotype.ttf
p988
sg21
g22
sbag1
(g8
g3
NtRp989
(dp990
g11
g17
sg13
S'STIXSizeTwoSym'
p991
sg15
I400
sg16
g17
sg18
g17
sg19
V/Library/Fonts/STIXSizTwoSymReg.otf
p992
sg21
g22
sbag1
(g8
g3
NtRp993
(dp994
g11
g17
sg13
S'Weibei SC'
p995
sg15
I700
sg16
g17
sg18
g17
sg19
V/Library/Fonts/WeibeiSC-Bold.otf
p996
sg21
g22
sbag1
(g8
g3
NtRp997
(dp998
g11
g17
sg13
S'MS PGothic'
p999
sg15
I400
sg16
g17
sg18
g17
sg19
V/Library/Fonts/Microsoft/MS PGothic.ttf
p1000
sg21
g22
sbag1
(g8
g3
NtRp1001
(dp1002
g11
g17
sg13
S'Hiragino Kaku Gothic StdN'
p1003
sg15
I700
sg16
g17
sg18
g17
sg19
V/Library/Fonts/\u30d2\u30e9\u30ad\u3099\u30ce\u89d2\u30b3\u3099 StdN W8.otf
p1004
sg21
g22
sbag1
(g8
g3
NtRp1005
(dp1006
g11
g17
sg13
S'STIXIntegralsUpD'
p1007
sg15
I400
sg16
g17
sg18
g17
sg19
V/Library/Fonts/STIXIntUpDReg.otf
p1008
sg21
g22
sbag1
(g8
g3
NtRp1009
(dp1010
g11
g12
sg13
S'Meiryo'
p1011
sg15
I700
sg16
g17
sg18
g17
sg19
V/Library/Fonts/Microsoft/Meiryo Bold Italic.ttf
p1012
sg21
g22
sbag1
(g8
g3
NtRp1013
(dp1014
g11
g12
sg13
S'Candara'
p1015
sg15
I400
sg16
g17
sg18
g17
sg19
V/Library/Fonts/Microsoft/Candara Italic.ttf
p1016
sg21
g22
sbag1
(g8
g3
NtRp1017
(dp1018
g11
g17
sg13
S'Hiragino Mincho Pro'
p1019
sg15
I400
sg16
g17
sg18
g17
sg19
V/Library/Fonts/\u30d2\u30e9\u30ad\u3099\u30ce\u660e\u671d Pro W3.otf
p1020
sg21
g22
sbag1
(g8
g3
NtRp1021
(dp1022
g11
g17
sg13
S'Apple SD Gothic Neo'
p1023
sg15
I200
sg16
g17
sg18
g17
sg19
V/Library/Fonts/AppleSDGothicNeo-UltraLight.otf
p1024
sg21
g22
sbag1
(g8
g3
NtRp1025
(dp1026
g11
g17
sg13
S'Arial Unicode MS'
p1027
sg15
I400
sg16
g17
sg18
g17
sg19
V/Library/Fonts/Arial Unicode.ttf
p1028
sg21
g22
sbag1
(g8
g3
NtRp1029
(dp1030
g11
g17
sg13
S'Hiragino Mincho ProN'
p1031
sg15
I400
sg16
g17
sg18
g17
sg19
V/System/Library/Fonts/\u30d2\u30e9\u30ad\u3099\u30ce\u660e\u671d ProN W3.otf
p1032
sg21
g22
sbag1
(g8
g3
NtRp1033
(dp1034
g11
g17
sg13
S'Apple SD Gothic Neo'
p1035
sg15
I800
sg16
g17
sg18
g17
sg19
V/Library/Fonts/AppleSDGothicNeo-Heavy.otf
p1036
sg21
g22
sbag1
(g8
g3
NtRp1037
(dp1038
g11
g17
sg13
S'Times New Roman'
p1039
sg15
I700
sg16
g17
sg18
g17
sg19
V/Library/Fonts/Microsoft/Times New Roman Bold.ttf
p1040
sg21
g22
sbag1
(g8
g3
NtRp1041
(dp1042
g11
g17
sg13
S'STIXIntegralsD'
p1043
sg15
I700
sg16
g17
sg18
g17
sg19
V/Library/Fonts/STIXIntDBol.otf
p1044
sg21
g22
sbag1
(g8
g3
NtRp1045
(dp1046
g11
g17
sg13
S'DIN Alternate'
p1047
sg15
I700
sg16
g17
sg18
g17
sg19
V/Library/Fonts/DIN Alternate Bold.ttf
p1048
sg21
g22
sbag1
(g8
g3
NtRp1049
(dp1050
g11
g17
sg13
S'Courier New'
p1051
sg15
I400
sg16
g17
sg18
g17
sg19
V/Library/Fonts/Courier New.ttf
p1052
sg21
g22
sbag1
(g8
g3
NtRp1053
(dp1054
g11
g12
sg13
S'Arial Narrow'
p1055
sg15
I700
sg16
g763
sg18
g17
sg19
V/Library/Fonts/Arial Narrow Bold Italic.ttf
p1056
sg21
g22
sbag1
(g8
g3
NtRp1057
(dp1058
g11
g17
sg13
S'Zapfino'
p1059
sg15
I400
sg16
g17
sg18
g17
sg19
V/Library/Fonts/Zapfino.ttf
p1060
sg21
g22
sbag1
(g8
g3
NtRp1061
(dp1062
g11
g17
sg13
S'Krungthep'
p1063
sg15
I400
sg16
g17
sg18
g17
sg19
V/Library/Fonts/Krungthep.ttf
p1064
sg21
g22
sbag1
(g8
g3
NtRp1065
(dp1066
g11
g17
sg13
S'Apple SD Gothic Neo'
p1067
sg15
I700
sg16
g17
sg18
g17
sg19
V/Library/Fonts/AppleSDGothicNeo-ExtraBold.otf
p1068
sg21
g22
sbag1
(g8
g3
NtRp1069
(dp1070
g11
g17
sg13
S'Mongolian Baiti'
p1071
sg15
I400
sg16
g17
sg18
g17
sg19
V/Library/Fonts/Microsoft/monbaiti.ttf
p1072
sg21
g22
sbag1
(g8
g3
NtRp1073
(dp1074
g11
g17
sg13
S'Diwan Thuluth'
p1075
sg15
I400
sg16
g17
sg18
g17
sg19
V/Library/Fonts/Diwan Thuluth.ttf
p1076
sg21
g22
sbag1
(g8
g3
NtRp1077
(dp1078
g11
g17
sg13
S'MingLiU_HKSCS'
p1079
sg15
I400
sg16
g17
sg18
g17
sg19
V/Library/Fonts/Microsoft/mingliu_hkscs.ttf
p1080
sg21
g22
sbag1
(g8
g3
NtRp1081
(dp1082
g11
g17
sg13
S'Apple Braille'
p1083
sg15
I400
sg16
g17
sg18
g17
sg19
V/System/Library/Fonts/Apple Braille Outline 8 Dot.ttf
p1084
sg21
g22
sbag1
(g8
g3
NtRp1085
(dp1086
g11
g12
sg13
S'Corbel'
p1087
sg15
I400
sg16
g17
sg18
g17
sg19
V/Library/Fonts/Microsoft/Corbel Italic.ttf
p1088
sg21
g22
sbag1
(g8
g3
NtRp1089
(dp1090
g11
g17
sg13
S'Palatino Linotype'
p1091
sg15
I700
sg16
g17
sg18
g17
sg19
V/Library/Fonts/Microsoft/Palatino Linotype Bold.ttf
p1092
sg21
g22
sbag1
(g8
g3
NtRp1093
(dp1094
g11
g17
sg13
S'Hiragino Kaku Gothic Pro'
p1095
sg15
I400
sg16
g17
sg18
g17
sg19
V/Library/Fonts/\u30d2\u30e9\u30ad\u3099\u30ce\u89d2\u30b3\u3099 Pro W3.otf
p1096
sg21
g22
sbag1
(g8
g3
NtRp1097
(dp1098
g11
g17
sg13
S'STIXVariants'
p1099
sg15
I700
sg16
g17
sg18
g17
sg19
V/Library/Fonts/STIXVarBol.otf
p1100
sg21
g22
sbag1
(g8
g3
NtRp1101
(dp1102
g11
g17
sg13
S'MS Gothic'
p1103
sg15
I400
sg16
g17
sg18
g17
sg19
V/Library/Fonts/Microsoft/MS Gothic.ttf
p1104
sg21
g22
sbag1
(g8
g3
NtRp1105
(dp1106
g11
g17
sg13
S'MS PMincho'
p1107
sg15
I400
sg16
g17
sg18
g17
sg19
V/Library/Fonts/Microsoft/MS PMincho.ttf
p1108
sg21
g22
sbag1
(g8
g3
NtRp1109
(dp1110
g11
g17
sg13
S'STIXIntegralsUp'
p1111
sg15
I700
sg16
g17
sg18
g17
sg19
V/Library/Fonts/STIXIntUpBol.otf
p1112
sg21
g22
sbag1
(g8
g3
NtRp1113
(dp1114
g11
g17
sg13
S'Wawati TC'
p1115
sg15
I400
sg16
g17
sg18
g17
sg19
V/Library/Fonts/WawaTC-Regular.otf
p1116
sg21
g22
sbag1
(g8
g3
NtRp1117
(dp1118
g11
g17
sg13
S'MS Reference Sans Serif'
p1119
sg15
I400
sg16
g17
sg18
g17
sg19
V/Library/Fonts/Microsoft/MS Reference Sans Serif.ttf
p1120
sg21
g22
sbag1
(g8
g3
NtRp1121
(dp1122
g11
g17
sg13
S'.Hiragino Kaku Gothic Interface'
p1123
sg15
I400
sg16
g17
sg18
g17
sg19
V/System/Library/Fonts/HiraKakuInterface-W2.otf
p1124
sg21
g22
sbag1
(g8
g3
NtRp1125
(dp1126
g11
g17
sg13
S'Corbel'
p1127
sg15
I400
sg16
g17
sg18
g17
sg19
V/Library/Fonts/Microsoft/Corbel.ttf
p1128
sg21
g22
sbag1
(g8
g3
NtRp1129
(dp1130
g11
g17
sg13
S'SimSun'
p1131
sg15
I400
sg16
g17
sg18
g17
sg19
V/Library/Fonts/Microsoft/SimSun.ttf
p1132
sg21
g22
sbag1
(g8
g3
NtRp1133
(dp1134
g11
g17
sg13
S'Apple Braille'
p1135
sg15
I400
sg16
g17
sg18
g17
sg19
V/System/Library/Fonts/Apple Braille Pinpoint 8 Dot.ttf
p1136
sg21
g22
sbag1
(g8
g3
NtRp1137
(dp1138
g11
g12
sg13
S'Georgia'
p1139
sg15
I400
sg16
g17
sg18
g17
sg19
V/Library/Fonts/Georgia Italic.ttf
p1140
sg21
g22
sbag1
(g8
g3
NtRp1141
(dp1142
g11
g17
sg13
S'Apple Braille'
p1143
sg15
I400
sg16
g17
sg18
g17
sg19
V/System/Library/Fonts/Apple Braille.ttf
p1144
sg21
g22
sbag1
(g8
g3
NtRp1145
(dp1146
g11
g12
sg13
S'Gill Sans MT'
p1147
sg15
I700
sg16
g17
sg18
g17
sg19
V/Library/Fonts/Microsoft/Gill Sans MT Bold Italic.ttf
p1148
sg21
g22
sbag1
(g8
g3
NtRp1149
(dp1150
g11
g17
sg13
S'Constantia'
p1151
sg15
I400
sg16
g17
sg18
g17
sg19
V/Library/Fonts/Microsoft/Constantia.ttf
p1152
sg21
g22
sbag1
(g8
g3
NtRp1153
(dp1154
g11
g17
sg13
S'Calibri'
p1155
sg15
I400
sg16
g17
sg18
g17
sg19
V/Library/Fonts/Microsoft/Calibri.ttf
p1156
sg21
g22
sbag1
(g8
g3
NtRp1157
(dp1158
g11
g17
sg13
S'LiHei Pro'
p1159
sg15
I400
sg16
g17
sg18
g17
sg19
V/Library/Fonts/\u5137\u9ed1 Pro.ttf
p1160
sg21
g22
sbag1
(g8
g3
NtRp1161
(dp1162
g11
g17
sg13
S'Apple SD Gothic Neo'
p1163
sg15
I400
sg16
g17
sg18
g17
sg19
V/Library/Fonts/AppleSDGothicNeo-Thin.otf
p1164
sg21
g22
sbag1
(g8
g3
NtRp1165
(dp1166
g11
g17
sg13
S'STIXGeneral'
p1167
sg15
I700
sg16
g17
sg18
g17
sg19
V/Library/Fonts/STIXGeneralBol.otf
p1168
sg21
g22
sbag1
(g8
g3
NtRp1169
(dp1170
g11
g17
sg13
S'Meiryo'
p1171
sg15
I700
sg16
g17
sg18
g17
sg19
V/Library/Fonts/Microsoft/Meiryo Bold.ttf
p1172
sg21
g22
sbag1
(g8
g3
NtRp1173
(dp1174
g11
g12
sg13
S'Constantia'
p1175
sg15
I700
sg16
g17
sg18
g17
sg19
V/Library/Fonts/Microsoft/Constantia Bold Italic.ttf
p1176
sg21
g22
sbag1
(g8
g3
NtRp1177
(dp1178
g11
g17
sg13
S'Franklin Gothic Book'
p1179
sg15
I400
sg16
g17
sg18
g17
sg19
V/Library/Fonts/Microsoft/Franklin Gothic Book.ttf
p1180
sg21
g22
sbag1
(g8
g3
NtRp1181
(dp1182
g11
g17
sg13
S'STIXIntegralsD'
p1183
sg15
I400
sg16
g17
sg18
g17
sg19
V/Library/Fonts/STIXIntDReg.otf
p1184
sg21
g22
sbag1
(g8
g3
NtRp1185
(dp1186
g11
g12
sg13
S'STIXGeneral'
p1187
sg15
I700
sg16
g17
sg18
g17
sg19
V/Library/Fonts/STIXGeneralBolIta.otf
p1188
sg21
g22
sbag1
(g8
g3
NtRp1189
(dp1190
g11
g17
sg13
S'Trebuchet MS'
p1191
sg15
I400
sg16
g17
sg18
g17
sg19
V/Library/Fonts/Trebuchet MS.ttf
p1192
sg21
g22
sbag1
(g8
g3
NtRp1193
(dp1194
g11
g17
sg13
S'Courier New'
p1195
sg15
I700
sg16
g17
sg18
g17
sg19
V/Library/Fonts/Courier New Bold.ttf
p1196
sg21
g22
sbag1
(g8
g3
NtRp1197
(dp1198
g11
g17
sg13
S'Herculanum'
p1199
sg15
I400
sg16
g17
sg18
g17
sg19
V/Library/Fonts/Herculanum.ttf
p1200
sg21
g22
sbag1
(g8
g3
NtRp1201
(dp1202
g11
g17
sg13
S'MS Reference Specialty'
p1203
sg15
I400
sg16
g17
sg18
g17
sg19
V/Library/Fonts/Microsoft/MS Reference Specialty.ttf
p1204
sg21
g22
sbag1
(g8
g3
NtRp1205
(dp1206
g11
g17
sg13
S'Tahoma'
p1207
sg15
I400
sg16
g17
sg18
g17
sg19
V/Library/Fonts/Tahoma.ttf
p1208
sg21
g22
sbag1
(g8
g3
NtRp1209
(dp1210
g11
g17
sg13
S'Gill Sans MT'
p1211
sg15
I700
sg16
g17
sg18
g17
sg19
V/Library/Fonts/Microsoft/Gill Sans MT Bold.ttf
p1212
sg21
g22
sbag1
(g8
g3
NtRp1213
(dp1214
g11
g12
sg13
S'Palatino Linotype'
p1215
sg15
I400
sg16
g17
sg18
g17
sg19
V/Library/Fonts/Microsoft/Palatino Linotype Italic.ttf
p1216
sg21
g22
sbag1
(g8
g3
NtRp1217
(dp1218
g11
g17
sg13
S'.Hiragino Kaku Gothic Interface'
p1219
sg15
I400
sg16
g17
sg18
g17
sg19
V/System/Library/Fonts/HiraKakuInterface-W1.otf
p1220
sg21
g22
sbag1
(g8
g3
NtRp1221
(dp1222
g11
g12
sg13
S'Constantia'
p1223
sg15
I400
sg16
g17
sg18
g17
sg19
V/Library/Fonts/Microsoft/Constantia Italic.ttf
p1224
sg21
g22
sbag1
(g8
g3
NtRp1225
(dp1226
g11
g17
sg13
S'Microsoft Tai Le'
p1227
sg15
I400
sg16
g17
sg18
g17
sg19
V/Library/Fonts/Microsoft/taile.ttf
p1228
sg21
g22
sbag1
(g8
g3
NtRp1229
(dp1230
g11
g17
sg13
S'Hiragino Kaku Gothic ProN'
p1231
sg15
I400
sg16
g17
sg18
g17
sg19
V/System/Library/Fonts/\u30d2\u30e9\u30ad\u3099\u30ce\u89d2\u30b3\u3099 ProN W3.otf
p1232
sg21
g22
sbag1
(g8
g3
NtRp1233
(dp1234
g11
g12
sg13
S'Meiryo'
p1235
sg15
I400
sg16
g17
sg18
g17
sg19
V/Library/Fonts/Microsoft/Meiryo Italic.ttf
p1236
sg21
g22
sbag1
(g8
g3
NtRp1237
(dp1238
g11
g17
sg13
S'Comic Sans MS'
p1239
sg15
I700
sg16
g17
sg18
g17
sg19
V/Library/Fonts/Comic Sans MS Bold.ttf
p1240
sg21
g22
sbag1
(g8
g3
NtRp1241
(dp1242
g11
g17
sg13
S'Trattatello'
p1243
sg15
I400
sg16
g17
sg18
g17
sg19
V/Library/Fonts/Trattatello.ttf
p1244
sg21
g22
sbag1
(g8
g3
NtRp1245
(dp1246
g11
g17
sg13
S'LastResort'
p1247
sg15
I400
sg16
g17
sg18
g17
sg19
V/System/Library/Fonts/LastResort.ttf
p1248
sg21
g22
sbag1
(g8
g3
NtRp1249
(dp1250
g11
g17
sg13
S'Osaka'
p1251
sg15
I400
sg16
g17
sg18
g17
sg19
V/Library/Fonts/OsakaMono.ttf
p1252
sg21
g22
sbag1
(g8
g3
NtRp1253
(dp1254
g11
g17
sg13
S'GungSeo'
p1255
sg15
I400
sg16
g17
sg18
g17
sg19
V/Library/Fonts/Gungseouche.ttf
p1256
sg21
g22
sbag1
(g8
g3
NtRp1257
(dp1258
g11
g17
sg13
S'STIXSizeTwoSym'
p1259
sg15
I700
sg16
g17
sg18
g17
sg19
V/Library/Fonts/STIXSizTwoSymBol.otf
p1260
sg21
g22
sbag1
(g8
g3
NtRp1261
(dp1262
g11
g17
sg13
S'Sathu'
p1263
sg15
I400
sg16
g17
sg18
g17
sg19
V/Library/Fonts/Sathu.ttf
p1264
sg21
g22
sbag1
(g8
g3
NtRp1265
(dp1266
g11
g17
sg13
S'Gujarati MT'
p1267
sg15
I400
sg16
g17
sg18
g17
sg19
V/Library/Fonts/GujaratiMT.ttf
p1268
sg21
g22
sbag1
(g8
g3
NtRp1269
(dp1270
g11
g17
sg13
S'Apple SD Gothic Neo'
p1271
sg15
I500
sg16
g17
sg18
g17
sg19
V/Library/Fonts/AppleSDGothicNeo-Medium.otf
p1272
sg21
g22
sbasS'defaultFamily'
p1273
(dp1274
Vafm
p1275
VHelvetica
p1276
sVttf
p1277
VBitstream Vera Sans
p1278
ssS'ttffiles'
p1279
(lp1280
g20
ag26
ag30
ag34
ag38
ag42
ag47
ag51
ag55
ag59
ag63
ag67
ag71
ag75
ag79
ag83
ag87
ag91
ag95
ag99
ag103
ag107
ag111
ag115
ag119
ag123
ag127
ag131
ag135
ag139
ag143
ag147
ag151
ag155
ag159
ag163
ag167
ag171
ag175
ag179
ag183
aV/Library/Fonts/NISC18030.ttf
p1281
ag187
ag191
ag195
aV/opt/X11/share/fonts/TTF/VeraMoBd.ttf
p1282
aV/usr/X11R6/lib/X11/fonts/TTF/Vera.ttf
p1283
aV/usr/X11R6/lib/X11/fonts/TTF/VeraMono.ttf
p1284
ag199
ag203
ag207
ag211
ag215
ag219
ag223
ag227
ag231
ag235
ag239
aV/usr/X11/lib/X11/fonts/TTF/VeraMono.ttf
p1285
ag243
ag247
ag251
ag255
ag259
ag263
ag267
aV/System/Library/Fonts/Apple Color Emoji.ttf
p1286
ag271
aV/usr/X11R6/lib/X11/fonts/TTF/VeraSeBd.ttf
p1287
ag275
ag279
ag283
ag287
ag291
ag295
ag299
ag303
ag307
aV/usr/X11/lib/X11/fonts/OTF/SyrCOMQenNeshrin.otf
p1288
ag311
ag315
ag319
aV/usr/X11R6/lib/X11/fonts/OTF/SyrCOMEdessa.otf
p1289
ag323
ag327
ag331
aV/usr/X11R6/lib/X11/fonts/OTF/SyrCOMMalankara.otf
p1290
ag335
ag339
ag343
ag347
aV/opt/X11/share/fonts/OTF/SyrCOMMardinBold.otf
p1291
aV/usr/X11/lib/X11/fonts/OTF/SyrCOMUrhoy.otf
p1292
ag351
ag355
ag359
ag363
ag367
ag371
ag375
aV/usr/X11/lib/X11/fonts/TTF/VeraSeBd.ttf
p1293
ag379
ag383
ag387
ag391
ag395
ag399
ag403
ag407
ag411
ag415
ag419
aV/usr/X11/lib/X11/fonts/TTF/luxirr.ttf
p1294
ag423
aV/usr/X11R6/lib/X11/fonts/TTF/VeraBd.ttf
p1295
ag427
ag431
ag435
ag439
aV/opt/X11/share/fonts/TTF/VeraBI.ttf
p1296
ag443
ag447
ag451
ag455
ag459
ag463
ag467
ag471
ag475
ag479
ag483
ag487
ag491
ag495
aV/usr/X11R6/lib/X11/fonts/TTF/VeraMoBd.ttf
p1297
ag499
ag503
ag507
ag511
ag515
aV/opt/X11/share/fonts/TTF/VeraMoIt.ttf
p1298
ag519
ag523
aV/usr/X11/lib/X11/fonts/TTF/luximb.ttf
p1299
ag527
ag531
ag535
ag539
ag543
ag547
ag551
ag555
ag559
ag563
ag567
ag571
ag575
aV/usr/X11R6/lib/X11/fonts/OTF/SyrCOMAdiabene.otf
p1300
ag579
aV/opt/X11/share/fonts/TTF/luxirr.ttf
p1301
aV/usr/X11R6/lib/X11/fonts/OTF/SyrCOMMidyat.otf
p1302
ag583
aV/usr/X11R6/lib/X11/fonts/OTF/SyrCOMUrhoyBold.otf
p1303
ag587
ag591
ag595
aV/usr/X11/lib/X11/fonts/TTF/VeraIt.ttf
p1304
ag599
ag603
aV/usr/X11R6/lib/X11/fonts/TTF/luxirb.ttf
p1305
ag607
aV/usr/X11R6/lib/X11/fonts/OTF/SyrCOMBatnan.otf
p1306
aV/Library/Fonts/Verdana.ttf
p1307
ag611
ag615
ag619
ag623
ag627
aV/opt/X11/share/fonts/TTF/VeraIt.ttf
p1308
aV/Library/Fonts/Arial Italic.ttf
p1309
ag631
ag635
ag639
ag643
aV/usr/X11R6/lib/X11/fonts/OTF/SyrCOMCtesiphon.otf
p1310
ag647
aV/Library/Fonts/Verdana Italic.ttf
p1311
ag651
ag655
aV/usr/X11/lib/X11/fonts/OTF/SyrCOMAntioch.otf
p1312
ag659
ag663
aV/usr/X11/lib/X11/fonts/OTF/SyrCOMJerusalemBold.otf
p1313
ag667
ag671
ag675
ag679
aV/usr/X11R6/lib/X11/fonts/OTF/SyrCOMJerusalemBold.otf
p1314
ag683
aV/Library/Fonts/Microsoft/Arial Bold Italic.ttf
p1315
aV/usr/X11R6/lib/X11/fonts/OTF/SyrCOMUrhoy.otf
p1316
aV/opt/X11/share/fonts/TTF/Vera.ttf
p1317
ag687
aV/opt/X11/share/fonts/TTF/VeraMoBI.ttf
p1318
ag691
ag695
ag699
ag703
ag707
aV/usr/X11R6/lib/X11/fonts/TTF/luxisri.ttf
p1319
aV/opt/X11/share/fonts/OTF/SyrCOMKharput.otf
p1320
aV/usr/X11/lib/X11/fonts/TTF/luximr.ttf
p1321
ag711
ag715
ag719
ag723
ag727
aV/usr/X11R6/lib/X11/fonts/TTF/GohaTibebZemen.ttf
p1322
aV/usr/X11R6/lib/X11/fonts/OTF/SyrCOMJerusalemItalic.otf
p1323
ag731
aV/opt/X11/share/fonts/TTF/luxisb.ttf
p1324
ag735
ag739
ag743
ag747
ag751
aV/usr/X11R6/lib/X11/fonts/TTF/VeraBI.ttf
p1325
aV/Library/Fonts/Verdana Bold.ttf
p1326
ag755
ag759
ag764
aV/usr/X11R6/lib/X11/fonts/OTF/SyrCOMTalada.otf
p1327
ag768
ag772
ag776
aV/usr/X11R6/lib/X11/fonts/OTF/SyrCOMNisibin.otf
p1328
aV/Library/Fonts/Arial.ttf
p1329
ag780
ag784
ag788
ag792
aV/Library/Fonts/Microsoft/Times New Roman.ttf
p1330
ag796
ag800
aV/usr/X11R6/lib/X11/fonts/TTF/VeraMoIt.ttf
p1331
aV/usr/X11/lib/X11/fonts/OTF/SyrCOMMardinBold.otf
p1332
ag804
ag808
aV/Library/Fonts/Times New Roman Italic.ttf
p1333
ag812
aV/opt/X11/share/fonts/OTF/SyrCOMNisibinOutline.otf
p1334
ag816
ag820
aV/usr/X11/lib/X11/fonts/TTF/luxirb.ttf
p1335
aV/Library/Fonts/Times New Roman Bold Italic.ttf
p1336
ag824
ag828
ag832
ag836
ag840
ag844
ag848
ag852
ag856
ag860
ag864
aV/opt/X11/share/fonts/TTF/luxirbi.ttf
p1337
ag868
ag872
aV/opt/X11/share/fonts/TTF/VeraMono.ttf
p1338
aV/opt/X11/share/fonts/OTF/SyrCOMEdessa.otf
p1339
aV/usr/X11R6/lib/X11/fonts/TTF/luxisbi.ttf
p1340
ag876
aV/usr/X11/lib/X11/fonts/TTF/luxisr.ttf
p1341
ag880
aV/usr/X11/lib/X11/fonts/TTF/VeraMoBd.ttf
p1342
ag884
ag888
ag892
aV/usr/X11/lib/X11/fonts/TTF/VeraBd.ttf
p1343
ag896
ag900
ag904
ag908
ag912
aV/usr/X11R6/lib/X11/fonts/TTF/VeraIt.ttf
p1344
aV/opt/X11/share/fonts/TTF/luxisri.ttf
p1345
ag916
ag920
ag924
ag928
ag932
aV/opt/X11/share/fonts/OTF/SyrCOMJerusalem.otf
p1346
aV/opt/X11/share/fonts/TTF/VeraSe.ttf
p1347
aV/usr/X11/lib/X11/fonts/TTF/luxisbi.ttf
p1348
ag936
ag940
ag944
aV/usr/X11/lib/X11/fonts/OTF/SyrCOMAdiabene.otf
p1349
ag948
ag952
aV/usr/X11R6/lib/X11/fonts/TTF/luximbi.ttf
p1350
ag956
ag960
ag964
aV/usr/X11/lib/X11/fonts/OTF/SyrCOMTalada.otf
p1351
ag968
aV/usr/X11R6/lib/X11/fonts/TTF/luxisb.ttf
p1352
aV/Library/Fonts/Microsoft/Verdana Bold Italic.ttf
p1353
aV/usr/X11/lib/X11/fonts/OTF/GohaTibebZemen.otf
p1354
aV/opt/X11/share/fonts/TTF/luximri.ttf
p1355
ag972
ag976
aV/usr/X11R6/lib/X11/fonts/OTF/SyrCOMMardin.otf
p1356
aV/usr/X11/lib/X11/fonts/TTF/Vera.ttf
p1357
aV/opt/X11/share/fonts/OTF/SyrCOMMalankara.otf
p1358
aV/opt/X11/share/fonts/OTF/SyrCOMTurAbdin.otf
p1359
aV/usr/X11/lib/X11/fonts/TTF/VeraMoBI.ttf
p1360
aV/usr/X11R6/lib/X11/fonts/TTF/luxisr.ttf
p1361
ag980
ag984
ag988
ag992
ag996
aV/Library/Fonts/Arial Bold.ttf
p1362
ag1000
aV/usr/X11/lib/X11/fonts/OTF/SyrCOMJerusalemItalic.otf
p1363
ag1004
ag1008
aV/usr/X11R6/lib/X11/fonts/TTF/luximri.ttf
p1364
aV/opt/X11/share/fonts/OTF/SyrCOMUrhoyBold.otf
p1365
ag1012
ag1016
ag1020
ag1024
ag1028
aV/usr/X11/lib/X11/fonts/TTF/VeraSe.ttf
p1366
aV/usr/X11R6/lib/X11/fonts/TTF/VeraMoBI.ttf
p1367
ag1032
ag1036
aV/opt/X11/share/fonts/OTF/SyrCOMCtesiphon.otf
p1368
ag1040
aV/opt/X11/share/fonts/TTF/luxirri.ttf
p1369
aV/usr/X11/lib/X11/fonts/OTF/SyrCOMJerusalemOutline.otf
p1370
ag1044
ag1048
ag1052
ag1056
aV/usr/X11/lib/X11/fonts/OTF/SyrCOMJerusalem.otf
p1371
ag1060
ag1064
ag1068
aV/opt/X11/share/fonts/OTF/SyrCOMBatnan.otf
p1372
ag1072
aV/usr/X11/lib/X11/fonts/TTF/VeraMoIt.ttf
p1373
ag1076
aV/opt/X11/share/fonts/OTF/GohaTibebZemen.otf
p1374
ag1080
aV/usr/X11R6/lib/X11/fonts/TTF/luximr.ttf
p1375
aV/usr/X11/lib/X11/fonts/OTF/SyrCOMMidyat.otf
p1376
ag1084
aV/usr/X11R6/lib/X11/fonts/TTF/VeraSe.ttf
p1377
aV/Library/Fonts/Times New Roman Bold.ttf
p1378
ag1088
aV/usr/X11/lib/X11/fonts/TTF/GohaTibebZemen.ttf
p1379
ag1092
ag1096
aV/opt/X11/share/fonts/TTF/luximbi.ttf
p1380
ag1100
ag1104
ag1108
ag1112
ag1116
ag1120
aV/opt/X11/share/fonts/TTF/VeraBd.ttf
p1381
aV/opt/X11/share/fonts/OTF/SyrCOMNisibin.otf
p1382
ag1124
ag1128
aV/opt/X11/share/fonts/TTF/VeraSeBd.ttf
p1383
aV/usr/X11R6/lib/X11/fonts/OTF/SyrCOMBatnanBold.otf
p1384
aV/usr/X11/lib/X11/fonts/OTF/SyrCOMMardin.otf
p1385
aV/usr/X11/lib/X11/fonts/TTF/luxirbi.ttf
p1386
aV/opt/X11/share/fonts/OTF/SyrCOMBatnanBold.otf
p1387
ag1132
ag1136
ag1140
aV/usr/X11R6/lib/X11/fonts/OTF/SyrCOMNisibinOutline.otf
p1388
ag1144
ag1148
aV/usr/X11/lib/X11/fonts/OTF/SyrCOMKharput.otf
p1389
ag1152
aV/opt/X11/share/fonts/TTF/luximb.ttf
p1390
aV/usr/X11/lib/X11/fonts/TTF/luxirri.ttf
p1391
ag1156
ag1160
ag1164
ag1168
ag1172
aV/usr/X11R6/lib/X11/fonts/OTF/SyrCOMQenNeshrin.otf
p1392
ag1176
ag1180
ag1184
ag1188
ag1192
aV/usr/X11/lib/X11/fonts/TTF/VeraBI.ttf
p1393
ag1196
ag1200
aV/Library/Fonts/Microsoft/Wingdings.ttf
p1394
aV/usr/X11/lib/X11/fonts/OTF/SyrCOMTurAbdin.otf
p1395
aV/Library/Fonts/Wingdings 2.ttf
p1396
ag1204
ag1208
aV/Library/Fonts/Brush Script.ttf
p1397
aV/usr/X11R6/lib/X11/fonts/OTF/SyrCOMJerusalemOutline.otf
p1398
ag1212
ag1216
ag1220
ag1224
ag1228
aV/usr/X11R6/lib/X11/fonts/OTF/SyrCOMAntioch.otf
p1399
ag1232
ag1236
ag1240
ag1244
ag1248
ag1252
ag1256
ag1260
aV/Library/Fonts/Wingdings 3.ttf
p1400
ag1264
ag1268
ag1272
asS'_FontManager__default_weight'
p1401
Vnormal
p1402
sS'_version'
p1403
I101
sS'default_size'
p1404
NsS'defaultFont'
p1405
(dp1406
g1275
V/Users/mforbes/.virtualenvs/tellapart/lib/python2.7/site-packages/matplotlib/mpl-data/fonts/afm/cmmi10.afm
p1407
sg1277
g95
ssS'afmfiles'
p1408
(lp1409
g1407
aV/Users/mforbes/.virtualenvs/tellapart/lib/python2.7/site-packages/matplotlib/mpl-data/fonts/afm/pncri8a.afm
p1410
aV/Users/mforbes/.virtualenvs/tellapart/lib/python2.7/site-packages/matplotlib/mpl-data/fonts/afm/cmtt10.afm
p1411
aV/Users/mforbes/.virtualenvs/tellapart/lib/python2.7/site-packages/matplotlib/mpl-data/fonts/afm/phvbo8an.afm
p1412
aV/Users/mforbes/.virtualenvs/tellapart/lib/python2.7/site-packages/matplotlib/mpl-data/fonts/afm/pplbi8a.afm
p1413
aV/Users/mforbes/.virtualenvs/tellapart/lib/python2.7/site-packages/matplotlib/mpl-data/fonts/afm/pncr8a.afm
p1414
aV/Users/mforbes/.virtualenvs/tellapart/lib/python2.7/site-packages/matplotlib/mpl-data/fonts/afm/putb8a.afm
p1415
aV/Users/mforbes/.virtualenvs/tellapart/lib/python2.7/site-packages/matplotlib/mpl-data/fonts/afm/phvl8a.afm
p1416
aV/Users/mforbes/.virtualenvs/tellapart/lib/python2.7/site-packages/matplotlib/mpl-data/fonts/afm/cmsy10.afm
p1417
aV/Users/mforbes/.virtualenvs/tellapart/lib/python2.7/site-packages/matplotlib/mpl-data/fonts/pdfcorefonts/Courier-Bold.afm
p1418
aV/Users/mforbes/.virtualenvs/tellapart/lib/python2.7/site-packages/matplotlib/mpl-data/fonts/afm/pplb8a.afm
p1419
aV/Users/mforbes/.virtualenvs/tellapart/lib/python2.7/site-packages/matplotlib/mpl-data/fonts/afm/putri8a.afm
p1420
aV/Users/mforbes/.virtualenvs/tellapart/lib/python2.7/site-packages/matplotlib/mpl-data/fonts/afm/phvr8a.afm
p1421
aV/Users/mforbes/.virtualenvs/tellapart/lib/python2.7/site-packages/matplotlib/mpl-data/fonts/afm/pagko8a.afm
p1422
aV/Users/mforbes/.virtualenvs/tellapart/lib/python2.7/site-packages/matplotlib/mpl-data/fonts/afm/phvlo8a.afm
p1423
aV/Users/mforbes/.virtualenvs/tellapart/lib/python2.7/site-packages/matplotlib/mpl-data/fonts/afm/pbkl8a.afm
p1424
aV/Users/mforbes/.virtualenvs/tellapart/lib/python2.7/site-packages/matplotlib/mpl-data/fonts/afm/pcrbo8a.afm
p1425
aV/Users/mforbes/.virtualenvs/tellapart/lib/python2.7/site-packages/matplotlib/mpl-data/fonts/afm/pzdr.afm
p1426
aV/Users/mforbes/.virtualenvs/tellapart/lib/python2.7/site-packages/matplotlib/mpl-data/fonts/afm/cmex10.afm
p1427
aV/Users/mforbes/.virtualenvs/tellapart/lib/python2.7/site-packages/matplotlib/mpl-data/fonts/afm/pplr8a.afm
p1428
aV/Users/mforbes/.virtualenvs/tellapart/lib/python2.7/site-packages/matplotlib/mpl-data/fonts/afm/phvb8an.afm
p1429
aV/Users/mforbes/.virtualenvs/tellapart/lib/python2.7/site-packages/matplotlib/mpl-data/fonts/afm/ptmb8a.afm
p1430
aV/Users/mforbes/.virtualenvs/tellapart/lib/python2.7/site-packages/matplotlib/mpl-data/fonts/pdfcorefonts/Courier-Oblique.afm
p1431
aV/Users/mforbes/.virtualenvs/tellapart/lib/python2.7/site-packages/matplotlib/mpl-data/fonts/afm/pncbi8a.afm
p1432
aV/Users/mforbes/.virtualenvs/tellapart/lib/python2.7/site-packages/matplotlib/mpl-data/fonts/afm/phvro8an.afm
p1433
aV/Users/mforbes/.virtualenvs/tellapart/lib/python2.7/site-packages/matplotlib/mpl-data/fonts/afm/pplri8a.afm
p1434
aV/Users/mforbes/.virtualenvs/tellapart/lib/python2.7/site-packages/matplotlib/mpl-data/fonts/afm/phvr8an.afm
p1435
aV/Users/mforbes/.virtualenvs/tellapart/lib/python2.7/site-packages/matplotlib/mpl-data/fonts/afm/phvro8a.afm
p1436
aV/Users/mforbes/.virtualenvs/tellapart/lib/python2.7/site-packages/matplotlib/mpl-data/fonts/afm/ptmr8a.afm
p1437
aV/Users/mforbes/.virtualenvs/tellapart/lib/python2.7/site-packages/matplotlib/mpl-data/fonts/afm/pzcmi8a.afm
p1438
aV/Users/mforbes/.virtualenvs/tellapart/lib/python2.7/site-packages/matplotlib/mpl-data/fonts/afm/psyr.afm
p1439
aV/Users/mforbes/.virtualenvs/tellapart/lib/python2.7/site-packages/matplotlib/mpl-data/fonts/afm/pagdo8a.afm
p1440
aV/Users/mforbes/.virtualenvs/tellapart/lib/python2.7/site-packages/matplotlib/mpl-data/fonts/afm/putbi8a.afm
p1441
aV/Users/mforbes/.virtualenvs/tellapart/lib/python2.7/site-packages/matplotlib/mpl-data/fonts/afm/pagd8a.afm
p1442
aV/Users/mforbes/.virtualenvs/tellapart/lib/python2.7/site-packages/matplotlib/mpl-data/fonts/pdfcorefonts/Helvetica-BoldOblique.afm
p1443
aV/Users/mforbes/.virtualenvs/tellapart/lib/python2.7/site-packages/matplotlib/mpl-data/fonts/afm/pcrr8a.afm
p1444
aV/Users/mforbes/.virtualenvs/tellapart/lib/python2.7/site-packages/matplotlib/mpl-data/fonts/pdfcorefonts/Courier-BoldOblique.afm
p1445
aV/Users/mforbes/.virtualenvs/tellapart/lib/python2.7/site-packages/matplotlib/mpl-data/fonts/afm/pcrro8a.afm
p1446
aV/Users/mforbes/.virtualenvs/tellapart/lib/python2.7/site-packages/matplotlib/mpl-data/fonts/pdfcorefonts/Times-BoldItalic.afm
p1447
aV/Users/mforbes/.virtualenvs/tellapart/lib/python2.7/site-packages/matplotlib/mpl-data/fonts/afm/pncb8a.afm
p1448
aV/Users/mforbes/.virtualenvs/tellapart/lib/python2.7/site-packages/matplotlib/mpl-data/fonts/pdfcorefonts/Courier.afm
p1449
aV/Users/mforbes/.virtualenvs/tellapart/lib/python2.7/site-packages/matplotlib/mpl-data/fonts/pdfcorefonts/Helvetica.afm
p1450
aV/Users/mforbes/.virtualenvs/tellapart/lib/python2.7/site-packages/matplotlib/mpl-data/fonts/afm/pagk8a.afm
p1451
aV/Users/mforbes/.virtualenvs/tellapart/lib/python2.7/site-packages/matplotlib/mpl-data/fonts/afm/ptmri8a.afm
p1452
aV/Users/mforbes/.virtualenvs/tellapart/lib/python2.7/site-packages/matplotlib/mpl-data/fonts/pdfcorefonts/Times-Italic.afm
p1453
aV/Users/mforbes/.virtualenvs/tellapart/lib/python2.7/site-packages/matplotlib/mpl-data/fonts/pdfcorefonts/ZapfDingbats.afm
p1454
aV/Users/mforbes/.virtualenvs/tellapart/lib/python2.7/site-packages/matplotlib/mpl-data/fonts/pdfcorefonts/Helvetica-Oblique.afm
p1455
aV/Users/mforbes/.virtualenvs/tellapart/lib/python2.7/site-packages/matplotlib/mpl-data/fonts/afm/putr8a.afm
p1456
aV/Users/mforbes/.virtualenvs/tellapart/lib/python2.7/site-packages/matplotlib/mpl-data/fonts/afm/pbkd8a.afm
p1457
aV/Users/mforbes/.virtualenvs/tellapart/lib/python2.7/site-packages/matplotlib/mpl-data/fonts/afm/phvbo8a.afm
p1458
aV/Users/mforbes/.virtualenvs/tellapart/lib/python2.7/site-packages/matplotlib/mpl-data/fonts/pdfcorefonts/Helvetica-Bold.afm
p1459
aV/Users/mforbes/.virtualenvs/tellapart/lib/python2.7/site-packages/matplotlib/mpl-data/fonts/afm/phvb8a.afm
p1460
aV/Users/mforbes/.virtualenvs/tellapart/lib/python2.7/site-packages/matplotlib/mpl-data/fonts/afm/ptmbi8a.afm
p1461
aV/Users/mforbes/.virtualenvs/tellapart/lib/python2.7/site-packages/matplotlib/mpl-data/fonts/afm/pbkli8a.afm
p1462
aV/Users/mforbes/.virtualenvs/tellapart/lib/python2.7/site-packages/matplotlib/mpl-data/fonts/pdfcorefonts/Symbol.afm
p1463
aV/Users/mforbes/.virtualenvs/tellapart/lib/python2.7/site-packages/matplotlib/mpl-data/fonts/afm/pbkdi8a.afm
p1464
aV/Users/mforbes/.virtualenvs/tellapart/lib/python2.7/site-packages/matplotlib/mpl-data/fonts/afm/cmr10.afm
p1465
aV/Users/mforbes/.virtualenvs/tellapart/lib/python2.7/site-packages/matplotlib/mpl-data/fonts/pdfcorefonts/Times-Bold.afm
p1466
aV/Users/mforbes/.virtualenvs/tellapart/lib/python2.7/site-packages/matplotlib/mpl-data/fonts/pdfcorefonts/Times-Roman.afm
p1467
aV/Users/mforbes/.virtualenvs/tellapart/lib/python2.7/site-packages/matplotlib/mpl-data/fonts/afm/pcrb8a.afm
p1468
aV/opt/local/share/fonts/urw-fonts/n021004l.afm
p1469
aV/opt/local/share/fonts/urw-fonts/b018012l.afm
p1470
aV/opt/local/share/fonts/urw-fonts/c059016l.afm
p1471
aV/opt/local/share/fonts/urw-fonts/n021023l.afm
p1472
aV/opt/local/share/fonts/urw-fonts/n022023l.afm
p1473
aV/usr/X11/lib/X11/fonts/Type1/l049036t.afm
p1474
aV/opt/local/share/fonts/urw-fonts/p052024l.afm
p1475
aV/usr/X11/lib/X11/fonts/Type1/UTRG____.afm
p1476
aV/opt/local/share/fonts/urw-fonts/n021003l.afm
p1477
aV/usr/X11/lib/X11/fonts/Type1/c0582bt_.afm
p1478
aV/usr/X11/lib/X11/fonts/Type1/c0648bt_.afm
p1479
aV/opt/local/share/fonts/urw-fonts/n022003l.afm
p1480
aV/usr/X11/lib/X11/fonts/Type1/c0633bt_.afm
p1481
aV/opt/local/share/fonts/urw-fonts/n019064l.afm
p1482
aV/opt/local/share/fonts/urw-fonts/b018035l.afm
p1483
aV/opt/local/share/fonts/urw-fonts/n019004l.afm
p1484
aV/usr/X11/lib/X11/fonts/Type1/l048013t.afm
p1485
aV/usr/X11/lib/X11/fonts/Type1/courb.afm
p1486
aV/usr/X11/lib/X11/fonts/Type1/c0649bt_.afm
p1487
aV/opt/local/share/fonts/urw-fonts/n022004l.afm
p1488
aV/usr/X11/lib/X11/fonts/Type1/c0632bt_.afm
p1489
aV/usr/X11/lib/X11/fonts/Type1/c0419bt_.afm
p1490
aV/usr/X11/lib/X11/fonts/Type1/UTI_____.afm
p1491
aV/opt/local/share/fonts/urw-fonts/d050000l.afm
p1492
aV/opt/local/share/fonts/urw-fonts/a010015l.afm
p1493
aV/usr/X11/lib/X11/fonts/Type1/l049016t.afm
p1494
aV/opt/local/share/fonts/urw-fonts/n019024l.afm
p1495
aV/usr/X11/lib/X11/fonts/Type1/l048033t.afm
p1496
aV/usr/X11/lib/X11/fonts/Type1/l048016t.afm
p1497
aV/opt/local/share/fonts/urw-fonts/c059013l.afm
p1498
aV/usr/X11/lib/X11/fonts/Type1/l048036t.afm
p1499
aV/opt/local/share/fonts/urw-fonts/p052004l.afm
p1500
aV/usr/X11/lib/X11/fonts/Type1/c0583bt_.afm
p1501
aV/opt/local/share/fonts/urw-fonts/c059036l.afm
p1502
aV/opt/local/share/fonts/urw-fonts/n019063l.afm
p1503
aV/usr/X11/lib/X11/fonts/Type1/courbi.afm
p1504
aV/opt/local/share/fonts/urw-fonts/p052023l.afm
p1505
aV/opt/local/share/fonts/urw-fonts/a010035l.afm
p1506
aV/opt/local/share/fonts/urw-fonts/b018015l.afm
p1507
aV/usr/X11/lib/X11/fonts/Type1/UTB_____.afm
p1508
aV/opt/local/share/fonts/urw-fonts/c059033l.afm
p1509
aV/opt/local/share/fonts/urw-fonts/n022024l.afm
p1510
aV/usr/X11/lib/X11/fonts/Type1/l049013t.afm
p1511
aV/opt/local/share/fonts/urw-fonts/n019003l.afm
p1512
aV/opt/local/share/fonts/urw-fonts/b018032l.afm
p1513
aV/opt/local/share/fonts/urw-fonts/n019043l.afm
p1514
aV/usr/X11/lib/X11/fonts/Type1/c0611bt_.afm
p1515
aV/opt/local/share/fonts/urw-fonts/s050000l.afm
p1516
aV/usr/X11/lib/X11/fonts/Type1/l047036t.afm
p1517
aV/usr/X11/lib/X11/fonts/Type1/l047016t.afm
p1518
aV/usr/X11/lib/X11/fonts/Type1/l047033t.afm
p1519
aV/usr/X11/lib/X11/fonts/Type1/l047013t.afm
p1520
aV/opt/local/share/fonts/urw-fonts/n019023l.afm
p1521
aV/usr/X11/lib/X11/fonts/Type1/l049033t.afm
p1522
aV/usr/X11/lib/X11/fonts/Type1/cour.afm
p1523
aV/opt/local/share/fonts/urw-fonts/n021024l.afm
p1524
aV/opt/local/share/fonts/urw-fonts/z003034l.afm
p1525
aV/opt/local/share/fonts/urw-fonts/n019044l.afm
p1526
aV/opt/local/share/fonts/urw-fonts/a010013l.afm
p1527
aV/usr/X11/lib/X11/fonts/Type1/UTBI____.afm
p1528
aV/usr/X11/lib/X11/fonts/Type1/couri.afm
p1529
aV/opt/local/share/fonts/urw-fonts/p052003l.afm
p1530
aV/opt/local/share/fonts/urw-fonts/a010033l.afm
p1531
asS'afmlist'
p1532
(lp1533
g1
(g8
g3
NtRp1534
(dp1535
g11
Vitalic
p1536
sg13
S'Computer Modern'
p1537
sg15
I500
sg16
Vnormal
p1538
sg18
g1538
sg19
g1407
sg21
Vscalable
p1539
sbag1
(g8
g3
NtRp1540
(dp1541
g11
g1536
sg13
S'New Century Schoolbook'
p1542
sg15
I500
sg16
g1538
sg18
g1538
sg19
g1410
sg21
g1539
sbag1
(g8
g3
NtRp1543
(dp1544
g11
g1538
sg13
S'Computer Modern'
p1545
sg15
I500
sg16
g1538
sg18
g1538
sg19
g1411
sg21
g1539
sbag1
(g8
g3
NtRp1546
(dp1547
g11
g1536
sg13
S'Helvetica'
p1548
sg15
I700
sg16
Vcondensed
p1549
sg18
g1538
sg19
g1412
sg21
g1539
sbag1
(g8
g3
NtRp1550
(dp1551
g11
g1536
sg13
S'Palatino'
p1552
sg15
I700
sg16
g1538
sg18
g1538
sg19
g1413
sg21
g1539
sbag1
(g8
g3
NtRp1553
(dp1554
g11
g1538
sg13
S'New Century Schoolbook'
p1555
sg15
I500
sg16
g1538
sg18
g1538
sg19
g1414
sg21
g1539
sbag1
(g8
g3
NtRp1556
(dp1557
g11
g1538
sg13
S'Utopia'
p1558
sg15
I700
sg16
g1538
sg18
g1538
sg19
g1415
sg21
g1539
sbag1
(g8
g3
NtRp1559
(dp1560
g11
g1538
sg13
S'Helvetica'
p1561
sg15
I200
sg16
g1538
sg18
g1538
sg19
g1416
sg21
g1539
sbag1
(g8
g3
NtRp1562
(dp1563
g11
g1536
sg13
S'Computer Modern'
p1564
sg15
I500
sg16
g1538
sg18
g1538
sg19
g1417
sg21
g1539
sbag1
(g8
g3
NtRp1565
(dp1566
g11
g1538
sg13
S'Courier'
p1567
sg15
I700
sg16
g1538
sg18
g1538
sg19
g1418
sg21
g1539
sbag1
(g8
g3
NtRp1568
(dp1569
g11
g1538
sg13
S'Palatino'
p1570
sg15
I700
sg16
g1538
sg18
g1538
sg19
g1419
sg21
g1539
sbag1
(g8
g3
NtRp1571
(dp1572
g11
g1536
sg13
S'Utopia'
p1573
sg15
I400
sg16
g1538
sg18
g1538
sg19
g1420
sg21
g1539
sbag1
(g8
g3
NtRp1574
(dp1575
g11
g1538
sg13
S'Helvetica'
p1576
sg15
I500
sg16
g1538
sg18
g1538
sg19
g1421
sg21
g1539
sbag1
(g8
g3
NtRp1577
(dp1578
g11
g1536
sg13
S'ITC Avant Garde Gothic'
p1579
sg15
I400
sg16
g1538
sg18
g1538
sg19
g1422
sg21
g1539
sbag1
(g8
g3
NtRp1580
(dp1581
g11
g1536
sg13
S'Helvetica'
p1582
sg15
I200
sg16
g1538
sg18
g1538
sg19
g1423
sg21
g1539
sbag1
(g8
g3
NtRp1583
(dp1584
g11
g1538
sg13
S'ITC Bookman'
p1585
sg15
I200
sg16
g1538
sg18
g1538
sg19
g1424
sg21
g1539
sbag1
(g8
g3
NtRp1586
(dp1587
g11
g1536
sg13
S'Courier'
p1588
sg15
I700
sg16
g1538
sg18
g1538
sg19
g1425
sg21
g1539
sbag1
(g8
g3
NtRp1589
(dp1590
g11
g1538
sg13
S'ITC Zapf Dingbats'
p1591
sg15
I500
sg16
g1538
sg18
g1538
sg19
g1426
sg21
g1539
sbag1
(g8
g3
NtRp1592
(dp1593
g11
g1538
sg13
S'Computer Modern'
p1594
sg15
I500
sg16
g1538
sg18
g1538
sg19
g1427
sg21
g1539
sbag1
(g8
g3
NtRp1595
(dp1596
g11
g1538
sg13
S'Palatino'
p1597
sg15
I500
sg16
g1538
sg18
g1538
sg19
g1428
sg21
g1539
sbag1
(g8
g3
NtRp1598
(dp1599
g11
g1538
sg13
S'Helvetica'
p1600
sg15
I700
sg16
g1549
sg18
g1538
sg19
g1429
sg21
g1539
sbag1
(g8
g3
NtRp1601
(dp1602
g11
g1538
sg13
S'Times'
p1603
sg15
I700
sg16
g1538
sg18
g1538
sg19
g1430
sg21
g1539
sbag1
(g8
g3
NtRp1604
(dp1605
g11
g1536
sg13
S'Courier'
p1606
sg15
I500
sg16
g1538
sg18
g1538
sg19
g1431
sg21
g1539
sbag1
(g8
g3
NtRp1607
(dp1608
g11
g1536
sg13
S'New Century Schoolbook'
p1609
sg15
I700
sg16
g1538
sg18
g1538
sg19
g1432
sg21
g1539
sbag1
(g8
g3
NtRp1610
(dp1611
g11
g1536
sg13
S'Helvetica'
p1612
sg15
I500
sg16
g1549
sg18
g1538
sg19
g1433
sg21
g1539
sbag1
(g8
g3
NtRp1613
(dp1614
g11
g1536
sg13
S'Palatino'
p1615
sg15
I500
sg16
g1538
sg18
g1538
sg19
g1434
sg21
g1539
sbag1
(g8
g3
NtRp1616
(dp1617
g11
g1538
sg13
S'Helvetica'
p1618
sg15
I500
sg16
g1549
sg18
g1538
sg19
g1435
sg21
g1539
sbag1
(g8
g3
NtRp1619
(dp1620
g11
g1536
sg13
S'Helvetica'
p1621
sg15
I500
sg16
g1538
sg18
g1538
sg19
g1436
sg21
g1539
sbag1
(g8
g3
NtRp1622
(dp1623
g11
g1538
sg13
S'Times'
p1624
sg15
I500
sg16
g1538
sg18
g1538
sg19
g1437
sg21
g1539
sbag1
(g8
g3
NtRp1625
(dp1626
g11
g1536
sg13
S'ITC Zapf Chancery'
p1627
sg15
I500
sg16
g1538
sg18
g1538
sg19
g1438
sg21
g1539
sbag1
(g8
g3
NtRp1628
(dp1629
g11
g1538
sg13
S'Symbol'
p1630
sg15
I500
sg16
g1538
sg18
g1538
sg19
g1439
sg21
g1539
sbag1
(g8
g3
NtRp1631
(dp1632
g11
g1536
sg13
S'ITC Avant Garde Gothic'
p1633
sg15
I600
sg16
g1538
sg18
g1538
sg19
g1440
sg21
g1539
sbag1
(g8
g3
NtRp1634
(dp1635
g11
g1536
sg13
S'Utopia'
p1636
sg15
I700
sg16
g1538
sg18
g1538
sg19
g1441
sg21
g1539
sbag1
(g8
g3
NtRp1637
(dp1638
g11
g1538
sg13
S'ITC Avant Garde Gothic'
p1639
sg15
I600
sg16
g1538
sg18
g1538
sg19
g1442
sg21
g1539
sbag1
(g8
g3
NtRp1640
(dp1641
g11
g1536
sg13
S'Helvetica'
p1642
sg15
I700
sg16
g1538
sg18
g1538
sg19
g1443
sg21
g1539
sbag1
(g8
g3
NtRp1643
(dp1644
g11
g1538
sg13
S'Courier'
p1645
sg15
I500
sg16
g1538
sg18
g1538
sg19
g1444
sg21
g1539
sbag1
(g8
g3
NtRp1646
(dp1647
g11
g1536
sg13
S'Courier'
p1648
sg15
I700
sg16
g1538
sg18
g1538
sg19
g1445
sg21
g1539
sbag1
(g8
g3
NtRp1649
(dp1650
g11
g1536
sg13
S'Courier'
p1651
sg15
I500
sg16
g1538
sg18
g1538
sg19
g1446
sg21
g1539
sbag1
(g8
g3
NtRp1652
(dp1653
g11
g1536
sg13
S'Times'
p1654
sg15
I700
sg16
g1538
sg18
g1538
sg19
g1447
sg21
g1539
sbag1
(g8
g3
NtRp1655
(dp1656
g11
g1538
sg13
S'New Century Schoolbook'
p1657
sg15
I700
sg16
g1538
sg18
g1538
sg19
g1448
sg21
g1539
sbag1
(g8
g3
NtRp1658
(dp1659
g11
g1538
sg13
S'Courier'
p1660
sg15
I500
sg16
g1538
sg18
g1538
sg19
g1449
sg21
g1539
sbag1
(g8
g3
NtRp1661
(dp1662
g11
g1538
sg13
S'Helvetica'
p1663
sg15
I500
sg16
g1538
sg18
g1538
sg19
g1450
sg21
g1539
sbag1
(g8
g3
NtRp1664
(dp1665
g11
g1538
sg13
S'ITC Avant Garde Gothic'
p1666
sg15
I400
sg16
g1538
sg18
g1538
sg19
g1451
sg21
g1539
sbag1
(g8
g3
NtRp1667
(dp1668
g11
g1536
sg13
S'Times'
p1669
sg15
I500
sg16
g1538
sg18
g1538
sg19
g1452
sg21
g1539
sbag1
(g8
g3
NtRp1670
(dp1671
g11
g1536
sg13
S'Times'
p1672
sg15
I500
sg16
g1538
sg18
g1538
sg19
g1453
sg21
g1539
sbag1
(g8
g3
NtRp1673
(dp1674
g11
g1538
sg13
S'ZapfDingbats'
p1675
sg15
I500
sg16
g1538
sg18
g1538
sg19
g1454
sg21
g1539
sbag1
(g8
g3
NtRp1676
(dp1677
g11
g1536
sg13
S'Helvetica'
p1678
sg15
I500
sg16
g1538
sg18
g1538
sg19
g1455
sg21
g1539
sbag1
(g8
g3
NtRp1679
(dp1680
g11
g1538
sg13
S'Utopia'
p1681
sg15
I400
sg16
g1538
sg18
g1538
sg19
g1456
sg21
g1539
sbag1
(g8
g3
NtRp1682
(dp1683
g11
g1538
sg13
S'ITC Bookman'
p1684
sg15
I600
sg16
g1538
sg18
g1538
sg19
g1457
sg21
g1539
sbag1
(g8
g3
NtRp1685
(dp1686
g11
g1536
sg13
S'Helvetica'
p1687
sg15
I700
sg16
g1538
sg18
g1538
sg19
g1458
sg21
g1539
sbag1
(g8
g3
NtRp1688
(dp1689
g11
g1538
sg13
S'Helvetica'
p1690
sg15
I700
sg16
g1538
sg18
g1538
sg19
g1459
sg21
g1539
sbag1
(g8
g3
NtRp1691
(dp1692
g11
g1538
sg13
S'Helvetica'
p1693
sg15
I700
sg16
g1538
sg18
g1538
sg19
g1460
sg21
g1539
sbag1
(g8
g3
NtRp1694
(dp1695
g11
g1536
sg13
S'Times'
p1696
sg15
I700
sg16
g1538
sg18
g1538
sg19
g1461
sg21
g1539
sbag1
(g8
g3
NtRp1697
(dp1698
g11
g1536
sg13
S'ITC Bookman'
p1699
sg15
I200
sg16
g1538
sg18
g1538
sg19
g1462
sg21
g1539
sbag1
(g8
g3
NtRp1700
(dp1701
g11
g1538
sg13
S'Symbol'
p1702
sg15
I500
sg16
g1538
sg18
g1538
sg19
g1463
sg21
g1539
sbag1
(g8
g3
NtRp1703
(dp1704
g11
g1536
sg13
S'ITC Bookman'
p1705
sg15
I600
sg16
g1538
sg18
g1538
sg19
g1464
sg21
g1539
sbag1
(g8
g3
NtRp1706
(dp1707
g11
g1538
sg13
S'Computer Modern'
p1708
sg15
I500
sg16
g1538
sg18
g1538
sg19
g1465
sg21
g1539
sbag1
(g8
g3
NtRp1709
(dp1710
g11
g1538
sg13
S'Times'
p1711
sg15
I700
sg16
g1538
sg18
g1538
sg19
g1466
sg21
g1539
sbag1
(g8
g3
NtRp1712
(dp1713
g11
g1538
sg13
S'Times'
p1714
sg15
I500
sg16
g1538
sg18
g1538
sg19
g1467
sg21
g1539
sbag1
(g8
g3
NtRp1715
(dp1716
g11
g1538
sg13
S'Courier'
p1717
sg15
I700
sg16
g1538
sg18
g1538
sg19
g1468
sg21
g1539
sbag1
(g8
g3
NtRp1718
(dp1719
g11
g1538
sg13
S'Nimbus Roman No9 L'
p1720
sg15
I700
sg16
g1538
sg18
g1538
sg19
g1469
sg21
g1539
sbag1
(g8
g3
NtRp1721
(dp1722
g11
g1538
sg13
S'URW Bookman L'
p1723
sg15
I400
sg16
g1538
sg18
g1538
sg19
g1470
sg21
g1539
sbag1
(g8
g3
NtRp1724
(dp1725
g11
g1538
sg13
S'Century Schoolbook L'
p1726
sg15
I700
sg16
g1538
sg18
g1538
sg19
g1471
sg21
g1539
sbag1
(g8
g3
NtRp1727
(dp1728
g11
g1536
sg13
S'Nimbus Roman No9 L'
p1729
sg15
I400
sg16
g1538
sg18
g1538
sg19
g1472
sg21
g1539
sbag1
(g8
g3
NtRp1730
(dp1731
g11
g1536
sg13
S'Nimbus Mono L'
p1732
sg15
I400
sg16
g1538
sg18
g1538
sg19
g1473
sg21
g1539
sbag1
(g8
g3
NtRp1733
(dp1734
g11
g1536
sg13
S'Luxi Serif'
p1735
sg15
I700
sg16
g1538
sg18
g1538
sg19
g1474
sg21
g1539
sbag1
(g8
g3
NtRp1736
(dp1737
g11
g1536
sg13
S'URW Palladio L'
p1738
sg15
I700
sg16
g1538
sg18
g1538
sg19
g1475
sg21
g1539
sbag1
(g8
g3
NtRp1739
(dp1740
g11
g1538
sg13
S'Utopia'
p1741
sg15
I400
sg16
g1538
sg18
g1538
sg19
g1476
sg21
g1539
sbag1
(g8
g3
NtRp1742
(dp1743
g11
g1538
sg13
S'Nimbus Roman No9 L'
p1744
sg15
I400
sg16
g1538
sg18
g1538
sg19
g1477
sg21
g1539
sbag1
(g8
g3
NtRp1745
(dp1746
g11
g1536
sg13
S'Courier 10 Pitch'
p1747
sg15
I400
sg16
g1538
sg18
g1538
sg19
g1478
sg21
g1539
sbag1
(g8
g3
NtRp1748
(dp1749
g11
g1538
sg13
S'Bitstream Charter'
p1750
sg15
I400
sg16
g1538
sg18
g1538
sg19
g1479
sg21
g1539
sbag1
(g8
g3
NtRp1751
(dp1752
g11
g1538
sg13
S'Nimbus Mono L'
p1753
sg15
I400
sg16
g1538
sg18
g1538
sg19
g1480
sg21
g1539
sbag1
(g8
g3
NtRp1754
(dp1755
g11
g1536
sg13
S'Bitstream Charter'
p1756
sg15
I700
sg16
g1538
sg18
g1538
sg19
g1481
sg21
g1539
sbag1
(g8
g3
NtRp1757
(dp1758
g11
g1536
sg13
S'Nimbus Sans L'
p1759
sg15
I700
sg16
g1549
sg18
g1538
sg19
g1482
sg21
g1539
sbag1
(g8
g3
NtRp1760
(dp1761
g11
g1536
sg13
S'URW Bookman L'
p1762
sg15
I700
sg16
g1538
sg18
g1538
sg19
g1483
sg21
g1539
sbag1
(g8
g3
NtRp1763
(dp1764
g11
g1538
sg13
S'Nimbus Sans L'
p1765
sg15
I700
sg16
g1538
sg18
g1538
sg19
g1484
sg21
g1539
sbag1
(g8
g3
NtRp1766
(dp1767
g11
g1538
sg13
S'Luxi Sans'
p1768
sg15
I400
sg16
g1538
sg18
g1538
sg19
g1485
sg21
g1539
sbag1
(g8
g3
NtRp1769
(dp1770
g11
g1538
sg13
S'Courier'
p1771
sg15
I700
sg16
g1538
sg18
g1538
sg19
g1486
sg21
g1539
sbag1
(g8
g3
NtRp1772
(dp1773
g11
g1536
sg13
S'Bitstream Charter'
p1774
sg15
I400
sg16
g1538
sg18
g1538
sg19
g1487
sg21
g1539
sbag1
(g8
g3
NtRp1775
(dp1776
g11
g1538
sg13
S'Nimbus Mono L'
p1777
sg15
I700
sg16
g1538
sg18
g1538
sg19
g1488
sg21
g1539
sbag1
(g8
g3
NtRp1778
(dp1779
g11
g1538
sg13
S'Bitstream Charter'
p1780
sg15
I700
sg16
g1538
sg18
g1538
sg19
g1489
sg21
g1539
sbag1
(g8
g3
NtRp1781
(dp1782
g11
g1538
sg13
S'Courier 10 Pitch'
p1783
sg15
I400
sg16
g1538
sg18
g1538
sg19
g1490
sg21
g1539
sbag1
(g8
g3
NtRp1784
(dp1785
g11
g1536
sg13
S'Utopia'
p1786
sg15
I400
sg16
g1538
sg18
g1538
sg19
g1491
sg21
g1539
sbag1
(g8
g3
NtRp1787
(dp1788
g11
g1538
sg13
S'Dingbats'
p1789
sg15
I400
sg16
g1538
sg18
g1538
sg19
g1492
sg21
g1539
sbag1
(g8
g3
NtRp1790
(dp1791
g11
g1538
sg13
S'URW Gothic L'
p1792
sg15
I600
sg16
g1538
sg18
g1538
sg19
g1493
sg21
g1539
sbag1
(g8
g3
NtRp1793
(dp1794
g11
g1538
sg13
S'Luxi Serif'
p1795
sg15
I700
sg16
g1538
sg18
g1538
sg19
g1494
sg21
g1539
sbag1
(g8
g3
NtRp1796
(dp1797
g11
g1536
sg13
S'Nimbus Sans L'
p1798
sg15
I700
sg16
g1538
sg18
g1538
sg19
g1495
sg21
g1539
sbag1
(g8
g3
NtRp1799
(dp1800
g11
g1536
sg13
S'Luxi Sans'
p1801
sg15
I400
sg16
g1538
sg18
g1538
sg19
g1496
sg21
g1539
sbag1
(g8
g3
NtRp1802
(dp1803
g11
g1538
sg13
S'Luxi Sans'
p1804
sg15
I700
sg16
g1538
sg18
g1538
sg19
g1497
sg21
g1539
sbag1
(g8
g3
NtRp1805
(dp1806
g11
g1538
sg13
S'Century Schoolbook L'
p1807
sg15
I500
sg16
g1538
sg18
g1538
sg19
g1498
sg21
g1539
sbag1
(g8
g3
NtRp1808
(dp1809
g11
g1536
sg13
S'Luxi Sans'
p1810
sg15
I700
sg16
g1538
sg18
g1538
sg19
g1499
sg21
g1539
sbag1
(g8
g3
NtRp1811
(dp1812
g11
g1538
sg13
S'URW Palladio L'
p1813
sg15
I700
sg16
g1538
sg18
g1538
sg19
g1500
sg21
g1539
sbag1
(g8
g3
NtRp1814
(dp1815
g11
g1538
sg13
S'Courier 10 Pitch'
p1816
sg15
I700
sg16
g1538
sg18
g1538
sg19
g1501
sg21
g1539
sbag1
(g8
g3
NtRp1817
(dp1818
g11
g1536
sg13
S'Century Schoolbook L'
p1819
sg15
I700
sg16
g1538
sg18
g1538
sg19
g1502
sg21
g1539
sbag1
(g8
g3
NtRp1820
(dp1821
g11
g1536
sg13
S'Nimbus Sans L'
p1822
sg15
I400
sg16
g1549
sg18
g1538
sg19
g1503
sg21
g1539
sbag1
(g8
g3
NtRp1823
(dp1824
g11
g1536
sg13
S'Courier'
p1825
sg15
I700
sg16
g1538
sg18
g1538
sg19
g1504
sg21
g1539
sbag1
(g8
g3
NtRp1826
(dp1827
g11
g1536
sg13
S'URW Palladio L'
p1828
sg15
I400
sg16
g1538
sg18
g1538
sg19
g1505
sg21
g1539
sbag1
(g8
g3
NtRp1829
(dp1830
g11
g1536
sg13
S'URW Gothic L'
p1831
sg15
I600
sg16
g1538
sg18
g1538
sg19
g1506
sg21
g1539
sbag1
(g8
g3
NtRp1832
(dp1833
g11
g1538
sg13
S'URW Bookman L'
p1834
sg15
I700
sg16
g1538
sg18
g1538
sg19
g1507
sg21
g1539
sbag1
(g8
g3
NtRp1835
(dp1836
g11
g1538
sg13
S'Utopia'
p1837
sg15
I700
sg16
g1538
sg18
g1538
sg19
g1508
sg21
g1539
sbag1
(g8
g3
NtRp1838
(dp1839
g11
g1536
sg13
S'Century Schoolbook L'
p1840
sg15
I400
sg16
g1538
sg18
g1538
sg19
g1509
sg21
g1539
sbag1
(g8
g3
NtRp1841
(dp1842
g11
g1536
sg13
S'Nimbus Mono L'
p1843
sg15
I700
sg16
g1538
sg18
g1538
sg19
g1510
sg21
g1539
sbag1
(g8
g3
NtRp1844
(dp1845
g11
g1538
sg13
S'Luxi Serif'
p1846
sg15
I400
sg16
g1538
sg18
g1538
sg19
g1511
sg21
g1539
sbag1
(g8
g3
NtRp1847
(dp1848
g11
g1538
sg13
S'Nimbus Sans L'
p1849
sg15
I400
sg16
g1538
sg18
g1538
sg19
g1512
sg21
g1539
sbag1
(g8
g3
NtRp1850
(dp1851
g11
g1536
sg13
S'URW Bookman L'
p1852
sg15
I400
sg16
g1538
sg18
g1538
sg19
g1513
sg21
g1539
sbag1
(g8
g3
NtRp1853
(dp1854
g11
g1538
sg13
S'Nimbus Sans L'
p1855
sg15
I400
sg16
g1549
sg18
g1538
sg19
g1514
sg21
g1539
sbag1
(g8
g3
NtRp1856
(dp1857
g11
g1536
sg13
S'Courier 10 Pitch'
p1858
sg15
I700
sg16
g1538
sg18
g1538
sg19
g1515
sg21
g1539
sbag1
(g8
g3
NtRp1859
(dp1860
g11
g1538
sg13
S'Standard Symbols L'
p1861
sg15
I400
sg16
g1538
sg18
g1538
sg19
g1516
sg21
g1539
sbag1
(g8
g3
NtRp1862
(dp1863
g11
g1536
sg13
S'Luxi Mono'
p1864
sg15
I700
sg16
g1538
sg18
g1538
sg19
g1517
sg21
g1539
sbag1
(g8
g3
NtRp1865
(dp1866
g11
g1538
sg13
S'Luxi Mono'
p1867
sg15
I700
sg16
g1538
sg18
g1538
sg19
g1518
sg21
g1539
sbag1
(g8
g3
NtRp1868
(dp1869
g11
g1536
sg13
S'Luxi Mono'
p1870
sg15
I400
sg16
g1538
sg18
g1538
sg19
g1519
sg21
g1539
sbag1
(g8
g3
NtRp1871
(dp1872
g11
g1538
sg13
S'Luxi Mono'
p1873
sg15
I400
sg16
g1538
sg18
g1538
sg19
g1520
sg21
g1539
sbag1
(g8
g3
NtRp1874
(dp1875
g11
g1536
sg13
S'Nimbus Sans L'
p1876
sg15
I400
sg16
g1538
sg18
g1538
sg19
g1521
sg21
g1539
sbag1
(g8
g3
NtRp1877
(dp1878
g11
g1536
sg13
S'Luxi Serif'
p1879
sg15
I400
sg16
g1538
sg18
g1538
sg19
g1522
sg21
g1539
sbag1
(g8
g3
NtRp1880
(dp1881
g11
g1538
sg13
S'Courier'
p1882
sg15
I400
sg16
g1538
sg18
g1538
sg19
g1523
sg21
g1539
sbag1
(g8
g3
NtRp1883
(dp1884
g11
g1536
sg13
S'Nimbus Roman No9 L'
p1885
sg15
I700
sg16
g1538
sg18
g1538
sg19
g1524
sg21
g1539
sbag1
(g8
g3
NtRp1886
(dp1887
g11
g1536
sg13
S'URW Chancery L'
p1888
sg15
I500
sg16
g1538
sg18
g1538
sg19
g1525
sg21
g1539
sbag1
(g8
g3
NtRp1889
(dp1890
g11
g1538
sg13
S'Nimbus Sans L'
p1891
sg15
I700
sg16
g1549
sg18
g1538
sg19
g1526
sg21
g1539
sbag1
(g8
g3
NtRp1892
(dp1893
g11
g1538
sg13
S'URW Gothic L'
p1894
sg15
I400
sg16
g1538
sg18
g1538
sg19
g1527
sg21
g1539
sbag1
(g8
g3
NtRp1895
(dp1896
g11
g1536
sg13
S'Utopia'
p1897
sg15
I700
sg16
g1538
sg18
g1538
sg19
g1528
sg21
g1539
sbag1
(g8
g3
NtRp1898
(dp1899
g11
g1536
sg13
S'Courier'
p1900
sg15
I400
sg16
g1538
sg18
g1538
sg19
g1529
sg21
g1539
sbag1
(g8
g3
NtRp1901
(dp1902
g11
g1538
sg13
S'URW Palladio L'
p1903
sg15
I500
sg16
g1538
sg18
g1538
sg19
g1530
sg21
g1539
sbag1
(g8
g3
NtRp1904
(dp1905
g11
g1536
sg13
S'URW Gothic L'
p1906
sg15
I400
sg16
g1538
sg18
g1538
sg19
g1531
sg21
g1539
sbasb.